
mysterious_elf.771c3c9447cd:     file format elf64-x86-64


Disassembly of section .init:

0000000000003f70 <_init>:
    3f70:	48 83 ec 08          	sub    rsp,0x8
    3f74:	48 8b 05 55 ef 22 00 	mov    rax,QWORD PTR [rip+0x22ef55]        # 232ed0 <__gmon_start__>
    3f7b:	48 85 c0             	test   rax,rax
    3f7e:	74 05                	je     3f85 <_init+0x15>
    3f80:	e8 93 01 00 00       	call   4118 <__gmon_start__@plt>
    3f85:	48 83 c4 08          	add    rsp,0x8
    3f89:	c3                   	ret    

Disassembly of section .plt:

0000000000003f90 <.plt>:
    3f90:	ff 35 aa ed 22 00    	push   QWORD PTR [rip+0x22edaa]        # 232d40 <_GLOBAL_OFFSET_TABLE_+0x8>
    3f96:	ff 25 ac ed 22 00    	jmp    QWORD PTR [rip+0x22edac]        # 232d48 <_GLOBAL_OFFSET_TABLE_+0x10>
    3f9c:	0f 1f 40 00          	nop    DWORD PTR [rax+0x0]

Disassembly of section .plt.got:

0000000000003fa0 <getenv@plt>:
    3fa0:	ff 25 aa ed 22 00    	jmp    QWORD PTR [rip+0x22edaa]        # 232d50 <getenv@GLIBC_2.2.5>
    3fa6:	66 90                	xchg   ax,ax

0000000000003fa8 <dl_iterate_phdr@plt>:
    3fa8:	ff 25 aa ed 22 00    	jmp    QWORD PTR [rip+0x22edaa]        # 232d58 <dl_iterate_phdr@GLIBC_2.2.5>
    3fae:	66 90                	xchg   ax,ax

0000000000003fb0 <__snprintf_chk@plt>:
    3fb0:	ff 25 aa ed 22 00    	jmp    QWORD PTR [rip+0x22edaa]        # 232d60 <__snprintf_chk@GLIBC_2.3.4>
    3fb6:	66 90                	xchg   ax,ax

0000000000003fb8 <free@plt>:
    3fb8:	ff 25 aa ed 22 00    	jmp    QWORD PTR [rip+0x22edaa]        # 232d68 <free@GLIBC_2.2.5>
    3fbe:	66 90                	xchg   ax,ax

0000000000003fc0 <_Unwind_FindEnclosingFunction@plt>:
    3fc0:	ff 25 aa ed 22 00    	jmp    QWORD PTR [rip+0x22edaa]        # 232d70 <_Unwind_FindEnclosingFunction@GCC_3.3>
    3fc6:	66 90                	xchg   ax,ax

0000000000003fc8 <abort@plt>:
    3fc8:	ff 25 aa ed 22 00    	jmp    QWORD PTR [rip+0x22edaa]        # 232d78 <abort@GLIBC_2.2.5>
    3fce:	66 90                	xchg   ax,ax

0000000000003fd0 <_Unwind_Backtrace@plt>:
    3fd0:	ff 25 aa ed 22 00    	jmp    QWORD PTR [rip+0x22edaa]        # 232d80 <_Unwind_Backtrace@GCC_3.3>
    3fd6:	66 90                	xchg   ax,ax

0000000000003fd8 <__errno_location@plt>:
    3fd8:	ff 25 aa ed 22 00    	jmp    QWORD PTR [rip+0x22edaa]        # 232d88 <__errno_location@GLIBC_2.2.5>
    3fde:	66 90                	xchg   ax,ax

0000000000003fe0 <pthread_getattr_np@plt>:
    3fe0:	ff 25 aa ed 22 00    	jmp    QWORD PTR [rip+0x22edaa]        # 232d90 <pthread_getattr_np@GLIBC_2.2.5>
    3fe6:	66 90                	xchg   ax,ax

0000000000003fe8 <sigaction@plt>:
    3fe8:	ff 25 b2 ed 22 00    	jmp    QWORD PTR [rip+0x22edb2]        # 232da0 <sigaction@GLIBC_2.2.5>
    3fee:	66 90                	xchg   ax,ax

0000000000003ff0 <__cxa_thread_atexit_impl@plt>:
    3ff0:	ff 25 b2 ed 22 00    	jmp    QWORD PTR [rip+0x22edb2]        # 232da8 <__cxa_thread_atexit_impl@GLIBC_2.18>
    3ff6:	66 90                	xchg   ax,ax

0000000000003ff8 <__xpg_strerror_r@plt>:
    3ff8:	ff 25 b2 ed 22 00    	jmp    QWORD PTR [rip+0x22edb2]        # 232db0 <__xpg_strerror_r@GLIBC_2.3.4>
    3ffe:	66 90                	xchg   ax,ax

0000000000004000 <fcntl@plt>:
    4000:	ff 25 b2 ed 22 00    	jmp    QWORD PTR [rip+0x22edb2]        # 232db8 <fcntl@GLIBC_2.2.5>
    4006:	66 90                	xchg   ax,ax

0000000000004008 <_Unwind_GetRegionStart@plt>:
    4008:	ff 25 b2 ed 22 00    	jmp    QWORD PTR [rip+0x22edb2]        # 232dc0 <_Unwind_GetRegionStart@GCC_3.0>
    400e:	66 90                	xchg   ax,ax

0000000000004010 <write@plt>:
    4010:	ff 25 b2 ed 22 00    	jmp    QWORD PTR [rip+0x22edb2]        # 232dc8 <write@GLIBC_2.2.5>
    4016:	66 90                	xchg   ax,ax

0000000000004018 <_Unwind_GetTextRelBase@plt>:
    4018:	ff 25 b2 ed 22 00    	jmp    QWORD PTR [rip+0x22edb2]        # 232dd0 <_Unwind_GetTextRelBase@GCC_3.0>
    401e:	66 90                	xchg   ax,ax

0000000000004020 <_Unwind_RaiseException@plt>:
    4020:	ff 25 b2 ed 22 00    	jmp    QWORD PTR [rip+0x22edb2]        # 232dd8 <_Unwind_RaiseException@GCC_3.0>
    4026:	66 90                	xchg   ax,ax

0000000000004028 <pthread_cond_wait@plt>:
    4028:	ff 25 b2 ed 22 00    	jmp    QWORD PTR [rip+0x22edb2]        # 232de0 <pthread_cond_wait@GLIBC_2.3.2>
    402e:	66 90                	xchg   ax,ax

0000000000004030 <strlen@plt>:
    4030:	ff 25 b2 ed 22 00    	jmp    QWORD PTR [rip+0x22edb2]        # 232de8 <strlen@GLIBC_2.2.5>
    4036:	66 90                	xchg   ax,ax

0000000000004038 <pthread_mutexattr_destroy@plt>:
    4038:	ff 25 b2 ed 22 00    	jmp    QWORD PTR [rip+0x22edb2]        # 232df0 <pthread_mutexattr_destroy@GLIBC_2.2.5>
    403e:	66 90                	xchg   ax,ax

0000000000004040 <__stack_chk_fail@plt>:
    4040:	ff 25 b2 ed 22 00    	jmp    QWORD PTR [rip+0x22edb2]        # 232df8 <__stack_chk_fail@GLIBC_2.4>
    4046:	66 90                	xchg   ax,ax

0000000000004048 <mmap@plt>:
    4048:	ff 25 b2 ed 22 00    	jmp    QWORD PTR [rip+0x22edb2]        # 232e00 <mmap@GLIBC_2.2.5>
    404e:	66 90                	xchg   ax,ax

0000000000004050 <pthread_setspecific@plt>:
    4050:	ff 25 b2 ed 22 00    	jmp    QWORD PTR [rip+0x22edb2]        # 232e08 <pthread_setspecific@GLIBC_2.2.5>
    4056:	66 90                	xchg   ax,ax

0000000000004058 <pthread_mutex_destroy@plt>:
    4058:	ff 25 b2 ed 22 00    	jmp    QWORD PTR [rip+0x22edb2]        # 232e10 <pthread_mutex_destroy@GLIBC_2.2.5>
    405e:	66 90                	xchg   ax,ax

0000000000004060 <pthread_mutexattr_init@plt>:
    4060:	ff 25 b2 ed 22 00    	jmp    QWORD PTR [rip+0x22edb2]        # 232e18 <pthread_mutexattr_init@GLIBC_2.2.5>
    4066:	66 90                	xchg   ax,ax

0000000000004068 <nanosleep@plt>:
    4068:	ff 25 b2 ed 22 00    	jmp    QWORD PTR [rip+0x22edb2]        # 232e20 <nanosleep@GLIBC_2.2.5>
    406e:	66 90                	xchg   ax,ax

0000000000004070 <dladdr@plt>:
    4070:	ff 25 b2 ed 22 00    	jmp    QWORD PTR [rip+0x22edb2]        # 232e28 <dladdr@GLIBC_2.2.5>
    4076:	66 90                	xchg   ax,ax

0000000000004078 <memset@plt>:
    4078:	ff 25 b2 ed 22 00    	jmp    QWORD PTR [rip+0x22edb2]        # 232e30 <memset@GLIBC_2.2.5>
    407e:	66 90                	xchg   ax,ax

0000000000004080 <pthread_condattr_destroy@plt>:
    4080:	ff 25 b2 ed 22 00    	jmp    QWORD PTR [rip+0x22edb2]        # 232e38 <pthread_condattr_destroy@GLIBC_2.2.5>
    4086:	66 90                	xchg   ax,ax

0000000000004088 <ioctl@plt>:
    4088:	ff 25 b2 ed 22 00    	jmp    QWORD PTR [rip+0x22edb2]        # 232e40 <ioctl@GLIBC_2.2.5>
    408e:	66 90                	xchg   ax,ax

0000000000004090 <strnlen@plt>:
    4090:	ff 25 b2 ed 22 00    	jmp    QWORD PTR [rip+0x22edb2]        # 232e48 <strnlen@GLIBC_2.2.5>
    4096:	66 90                	xchg   ax,ax

0000000000004098 <getcwd@plt>:
    4098:	ff 25 b2 ed 22 00    	jmp    QWORD PTR [rip+0x22edb2]        # 232e50 <getcwd@GLIBC_2.2.5>
    409e:	66 90                	xchg   ax,ax

00000000000040a0 <_Unwind_GetIPInfo@plt>:
    40a0:	ff 25 b2 ed 22 00    	jmp    QWORD PTR [rip+0x22edb2]        # 232e58 <_Unwind_GetIPInfo@GCC_4.2.0>
    40a6:	66 90                	xchg   ax,ax

00000000000040a8 <close@plt>:
    40a8:	ff 25 b2 ed 22 00    	jmp    QWORD PTR [rip+0x22edb2]        # 232e60 <close@GLIBC_2.2.5>
    40ae:	66 90                	xchg   ax,ax

00000000000040b0 <pthread_attr_getstack@plt>:
    40b0:	ff 25 b2 ed 22 00    	jmp    QWORD PTR [rip+0x22edb2]        # 232e68 <pthread_attr_getstack@GLIBC_2.2.5>
    40b6:	66 90                	xchg   ax,ax

00000000000040b8 <_Unwind_GetLanguageSpecificData@plt>:
    40b8:	ff 25 b2 ed 22 00    	jmp    QWORD PTR [rip+0x22edb2]        # 232e70 <_Unwind_GetLanguageSpecificData@GCC_3.0>
    40be:	66 90                	xchg   ax,ax

00000000000040c0 <memchr@plt>:
    40c0:	ff 25 b2 ed 22 00    	jmp    QWORD PTR [rip+0x22edb2]        # 232e78 <memchr@GLIBC_2.2.5>
    40c6:	66 90                	xchg   ax,ax

00000000000040c8 <read@plt>:
    40c8:	ff 25 b2 ed 22 00    	jmp    QWORD PTR [rip+0x22edb2]        # 232e80 <read@GLIBC_2.2.5>
    40ce:	66 90                	xchg   ax,ax

00000000000040d0 <__libc_start_main@plt>:
    40d0:	ff 25 b2 ed 22 00    	jmp    QWORD PTR [rip+0x22edb2]        # 232e88 <__libc_start_main@GLIBC_2.2.5>
    40d6:	66 90                	xchg   ax,ax

00000000000040d8 <memcmp@plt>:
    40d8:	ff 25 b2 ed 22 00    	jmp    QWORD PTR [rip+0x22edb2]        # 232e90 <memcmp@GLIBC_2.2.5>
    40de:	66 90                	xchg   ax,ax

00000000000040e0 <pthread_attr_init@plt>:
    40e0:	ff 25 b2 ed 22 00    	jmp    QWORD PTR [rip+0x22edb2]        # 232e98 <pthread_attr_init@GLIBC_2.2.5>
    40e6:	66 90                	xchg   ax,ax

00000000000040e8 <__tls_get_addr@plt>:
    40e8:	ff 25 b2 ed 22 00    	jmp    QWORD PTR [rip+0x22edb2]        # 232ea0 <__tls_get_addr@GLIBC_2.3>
    40ee:	66 90                	xchg   ax,ax

00000000000040f0 <pthread_cond_signal@plt>:
    40f0:	ff 25 b2 ed 22 00    	jmp    QWORD PTR [rip+0x22edb2]        # 232ea8 <pthread_cond_signal@GLIBC_2.3.2>
    40f6:	66 90                	xchg   ax,ax

00000000000040f8 <pthread_rwlock_rdlock@plt>:
    40f8:	ff 25 b2 ed 22 00    	jmp    QWORD PTR [rip+0x22edb2]        # 232eb0 <pthread_rwlock_rdlock@GLIBC_2.2.5>
    40fe:	66 90                	xchg   ax,ax

0000000000004100 <strcmp@plt>:
    4100:	ff 25 b2 ed 22 00    	jmp    QWORD PTR [rip+0x22edb2]        # 232eb8 <strcmp@GLIBC_2.2.5>
    4106:	66 90                	xchg   ax,ax

0000000000004108 <signal@plt>:
    4108:	ff 25 b2 ed 22 00    	jmp    QWORD PTR [rip+0x22edb2]        # 232ec0 <signal@GLIBC_2.2.5>
    410e:	66 90                	xchg   ax,ax

0000000000004110 <syscall@plt>:
    4110:	ff 25 b2 ed 22 00    	jmp    QWORD PTR [rip+0x22edb2]        # 232ec8 <syscall@GLIBC_2.2.5>
    4116:	66 90                	xchg   ax,ax

0000000000004118 <__gmon_start__@plt>:
    4118:	ff 25 b2 ed 22 00    	jmp    QWORD PTR [rip+0x22edb2]        # 232ed0 <__gmon_start__>
    411e:	66 90                	xchg   ax,ax

0000000000004120 <memcpy@plt>:
    4120:	ff 25 b2 ed 22 00    	jmp    QWORD PTR [rip+0x22edb2]        # 232ed8 <memcpy@GLIBC_2.14>
    4126:	66 90                	xchg   ax,ax

0000000000004128 <pthread_cond_init@plt>:
    4128:	ff 25 b2 ed 22 00    	jmp    QWORD PTR [rip+0x22edb2]        # 232ee0 <pthread_cond_init@GLIBC_2.3.2>
    412e:	66 90                	xchg   ax,ax

0000000000004130 <pthread_getspecific@plt>:
    4130:	ff 25 b2 ed 22 00    	jmp    QWORD PTR [rip+0x22edb2]        # 232ee8 <pthread_getspecific@GLIBC_2.2.5>
    4136:	66 90                	xchg   ax,ax

0000000000004138 <pthread_mutex_unlock@plt>:
    4138:	ff 25 b2 ed 22 00    	jmp    QWORD PTR [rip+0x22edb2]        # 232ef0 <pthread_mutex_unlock@GLIBC_2.2.5>
    413e:	66 90                	xchg   ax,ax

0000000000004140 <pthread_mutexattr_settype@plt>:
    4140:	ff 25 b2 ed 22 00    	jmp    QWORD PTR [rip+0x22edb2]        # 232ef8 <pthread_mutexattr_settype@GLIBC_2.2.5>
    4146:	66 90                	xchg   ax,ax

0000000000004148 <malloc@plt>:
    4148:	ff 25 b2 ed 22 00    	jmp    QWORD PTR [rip+0x22edb2]        # 232f00 <malloc@GLIBC_2.2.5>
    414e:	66 90                	xchg   ax,ax

0000000000004150 <clock_gettime@plt>:
    4150:	ff 25 b2 ed 22 00    	jmp    QWORD PTR [rip+0x22edb2]        # 232f08 <clock_gettime@GLIBC_2.2.5>
    4156:	66 90                	xchg   ax,ax

0000000000004158 <pthread_rwlock_unlock@plt>:
    4158:	ff 25 b2 ed 22 00    	jmp    QWORD PTR [rip+0x22edb2]        # 232f10 <pthread_rwlock_unlock@GLIBC_2.2.5>
    415e:	66 90                	xchg   ax,ax

0000000000004160 <pthread_condattr_setclock@plt>:
    4160:	ff 25 b2 ed 22 00    	jmp    QWORD PTR [rip+0x22edb2]        # 232f18 <pthread_condattr_setclock@GLIBC_2.3.3>
    4166:	66 90                	xchg   ax,ax

0000000000004168 <realloc@plt>:
    4168:	ff 25 b2 ed 22 00    	jmp    QWORD PTR [rip+0x22edb2]        # 232f20 <realloc@GLIBC_2.2.5>
    416e:	66 90                	xchg   ax,ax

0000000000004170 <munmap@plt>:
    4170:	ff 25 b2 ed 22 00    	jmp    QWORD PTR [rip+0x22edb2]        # 232f28 <munmap@GLIBC_2.2.5>
    4176:	66 90                	xchg   ax,ax

0000000000004178 <pthread_key_create@plt>:
    4178:	ff 25 b2 ed 22 00    	jmp    QWORD PTR [rip+0x22edb2]        # 232f30 <pthread_key_create@GLIBC_2.2.5>
    417e:	66 90                	xchg   ax,ax

0000000000004180 <_Unwind_GetDataRelBase@plt>:
    4180:	ff 25 b2 ed 22 00    	jmp    QWORD PTR [rip+0x22edb2]        # 232f38 <_Unwind_GetDataRelBase@GCC_3.0>
    4186:	66 90                	xchg   ax,ax

0000000000004188 <pthread_condattr_init@plt>:
    4188:	ff 25 b2 ed 22 00    	jmp    QWORD PTR [rip+0x22edb2]        # 232f40 <pthread_condattr_init@GLIBC_2.2.5>
    418e:	66 90                	xchg   ax,ax

0000000000004190 <_Unwind_SetGR@plt>:
    4190:	ff 25 b2 ed 22 00    	jmp    QWORD PTR [rip+0x22edb2]        # 232f48 <_Unwind_SetGR@GCC_3.0>
    4196:	66 90                	xchg   ax,ax

0000000000004198 <open64@plt>:
    4198:	ff 25 b2 ed 22 00    	jmp    QWORD PTR [rip+0x22edb2]        # 232f50 <open64@GLIBC_2.2.5>
    419e:	66 90                	xchg   ax,ax

00000000000041a0 <memmove@plt>:
    41a0:	ff 25 b2 ed 22 00    	jmp    QWORD PTR [rip+0x22edb2]        # 232f58 <memmove@GLIBC_2.2.5>
    41a6:	66 90                	xchg   ax,ax

00000000000041a8 <pthread_self@plt>:
    41a8:	ff 25 b2 ed 22 00    	jmp    QWORD PTR [rip+0x22edb2]        # 232f60 <pthread_self@GLIBC_2.2.5>
    41ae:	66 90                	xchg   ax,ax

00000000000041b0 <memrchr@plt>:
    41b0:	ff 25 b2 ed 22 00    	jmp    QWORD PTR [rip+0x22edb2]        # 232f68 <memrchr@GLIBC_2.2.5>
    41b6:	66 90                	xchg   ax,ax

00000000000041b8 <pthread_cond_destroy@plt>:
    41b8:	ff 25 b2 ed 22 00    	jmp    QWORD PTR [rip+0x22edb2]        # 232f70 <pthread_cond_destroy@GLIBC_2.3.2>
    41be:	66 90                	xchg   ax,ax

00000000000041c0 <open@plt>:
    41c0:	ff 25 b2 ed 22 00    	jmp    QWORD PTR [rip+0x22edb2]        # 232f78 <open@GLIBC_2.2.5>
    41c6:	66 90                	xchg   ax,ax

00000000000041c8 <sysconf@plt>:
    41c8:	ff 25 b2 ed 22 00    	jmp    QWORD PTR [rip+0x22edb2]        # 232f80 <sysconf@GLIBC_2.2.5>
    41ce:	66 90                	xchg   ax,ax

00000000000041d0 <pthread_attr_destroy@plt>:
    41d0:	ff 25 ba ed 22 00    	jmp    QWORD PTR [rip+0x22edba]        # 232f90 <pthread_attr_destroy@GLIBC_2.2.5>
    41d6:	66 90                	xchg   ax,ax

00000000000041d8 <getpagesize@plt>:
    41d8:	ff 25 ba ed 22 00    	jmp    QWORD PTR [rip+0x22edba]        # 232f98 <getpagesize@GLIBC_2.2.5>
    41de:	66 90                	xchg   ax,ax

00000000000041e0 <pthread_key_delete@plt>:
    41e0:	ff 25 ba ed 22 00    	jmp    QWORD PTR [rip+0x22edba]        # 232fa0 <pthread_key_delete@GLIBC_2.2.5>
    41e6:	66 90                	xchg   ax,ax

00000000000041e8 <posix_memalign@plt>:
    41e8:	ff 25 ba ed 22 00    	jmp    QWORD PTR [rip+0x22edba]        # 232fa8 <posix_memalign@GLIBC_2.2.5>
    41ee:	66 90                	xchg   ax,ax

00000000000041f0 <_Unwind_DeleteException@plt>:
    41f0:	ff 25 c2 ed 22 00    	jmp    QWORD PTR [rip+0x22edc2]        # 232fb8 <_Unwind_DeleteException@GCC_3.0>
    41f6:	66 90                	xchg   ax,ax

00000000000041f8 <sigaltstack@plt>:
    41f8:	ff 25 c2 ed 22 00    	jmp    QWORD PTR [rip+0x22edc2]        # 232fc0 <sigaltstack@GLIBC_2.2.5>
    41fe:	66 90                	xchg   ax,ax

0000000000004200 <_Unwind_Resume@plt>:
    4200:	ff 25 c2 ed 22 00    	jmp    QWORD PTR [rip+0x22edc2]        # 232fc8 <_Unwind_Resume@GCC_3.0>
    4206:	66 90                	xchg   ax,ax

0000000000004208 <pthread_mutex_init@plt>:
    4208:	ff 25 c2 ed 22 00    	jmp    QWORD PTR [rip+0x22edc2]        # 232fd0 <pthread_mutex_init@GLIBC_2.2.5>
    420e:	66 90                	xchg   ax,ax

0000000000004210 <__cxa_finalize@plt>:
    4210:	ff 25 c2 ed 22 00    	jmp    QWORD PTR [rip+0x22edc2]        # 232fd8 <__cxa_finalize@GLIBC_2.2.5>
    4216:	66 90                	xchg   ax,ax

0000000000004218 <pthread_mutex_lock@plt>:
    4218:	ff 25 c2 ed 22 00    	jmp    QWORD PTR [rip+0x22edc2]        # 232fe0 <pthread_mutex_lock@GLIBC_2.2.5>
    421e:	66 90                	xchg   ax,ax

0000000000004220 <_Unwind_SetIP@plt>:
    4220:	ff 25 c2 ed 22 00    	jmp    QWORD PTR [rip+0x22edc2]        # 232fe8 <_Unwind_SetIP@GCC_3.0>
    4226:	66 90                	xchg   ax,ax

Disassembly of section .text:

0000000000004230 <_start>:
    4230:	31 ed                	xor    ebp,ebp
    4232:	49 89 d1             	mov    r9,rdx
    4235:	5e                   	pop    rsi
    4236:	48 89 e2             	mov    rdx,rsp
    4239:	48 83 e4 f0          	and    rsp,0xfffffffffffffff0
    423d:	50                   	push   rax
    423e:	54                   	push   rsp
    423f:	4c 8d 05 7a f6 01 00 	lea    r8,[rip+0x1f67a]        # 238c0 <__libc_csu_fini>
    4246:	48 8d 0d 03 f6 01 00 	lea    rcx,[rip+0x1f603]        # 23850 <__libc_csu_init>
    424d:	48 8d 3d dc 1f 00 00 	lea    rdi,[rip+0x1fdc]        # 6230 <main>
    4254:	e8 77 fe ff ff       	call   40d0 <__libc_start_main@plt>
    4259:	f4                   	hlt    
    425a:	66 0f 1f 44 00 00    	nop    WORD PTR [rax+rax*1+0x0]

0000000000004260 <deregister_tm_clones>:
    4260:	48 8d 3d 61 ee 22 00 	lea    rdi,[rip+0x22ee61]        # 2330c8 <__TMC_END__>
    4267:	48 8d 05 61 ee 22 00 	lea    rax,[rip+0x22ee61]        # 2330cf <__TMC_END__+0x7>
    426e:	55                   	push   rbp
    426f:	48 29 f8             	sub    rax,rdi
    4272:	48 89 e5             	mov    rbp,rsp
    4275:	48 83 f8 0e          	cmp    rax,0xe
    4279:	76 15                	jbe    4290 <deregister_tm_clones+0x30>
    427b:	48 8b 05 16 eb 22 00 	mov    rax,QWORD PTR [rip+0x22eb16]        # 232d98 <_ITM_deregisterTMCloneTable>
    4282:	48 85 c0             	test   rax,rax
    4285:	74 09                	je     4290 <deregister_tm_clones+0x30>
    4287:	5d                   	pop    rbp
    4288:	ff e0                	jmp    rax
    428a:	66 0f 1f 44 00 00    	nop    WORD PTR [rax+rax*1+0x0]
    4290:	5d                   	pop    rbp
    4291:	c3                   	ret    
    4292:	0f 1f 40 00          	nop    DWORD PTR [rax+0x0]
    4296:	66 2e 0f 1f 84 00 00 	nop    WORD PTR cs:[rax+rax*1+0x0]
    429d:	00 00 00 

00000000000042a0 <register_tm_clones>:
    42a0:	48 8d 3d 21 ee 22 00 	lea    rdi,[rip+0x22ee21]        # 2330c8 <__TMC_END__>
    42a7:	48 8d 35 1a ee 22 00 	lea    rsi,[rip+0x22ee1a]        # 2330c8 <__TMC_END__>
    42ae:	55                   	push   rbp
    42af:	48 29 fe             	sub    rsi,rdi
    42b2:	48 89 e5             	mov    rbp,rsp
    42b5:	48 c1 fe 03          	sar    rsi,0x3
    42b9:	48 89 f0             	mov    rax,rsi
    42bc:	48 c1 e8 3f          	shr    rax,0x3f
    42c0:	48 01 c6             	add    rsi,rax
    42c3:	48 d1 fe             	sar    rsi,1
    42c6:	74 18                	je     42e0 <register_tm_clones+0x40>
    42c8:	48 8b 05 e1 ec 22 00 	mov    rax,QWORD PTR [rip+0x22ece1]        # 232fb0 <_ITM_registerTMCloneTable>
    42cf:	48 85 c0             	test   rax,rax
    42d2:	74 0c                	je     42e0 <register_tm_clones+0x40>
    42d4:	5d                   	pop    rbp
    42d5:	ff e0                	jmp    rax
    42d7:	66 0f 1f 84 00 00 00 	nop    WORD PTR [rax+rax*1+0x0]
    42de:	00 00 
    42e0:	5d                   	pop    rbp
    42e1:	c3                   	ret    
    42e2:	0f 1f 40 00          	nop    DWORD PTR [rax+0x0]
    42e6:	66 2e 0f 1f 84 00 00 	nop    WORD PTR cs:[rax+rax*1+0x0]
    42ed:	00 00 00 

00000000000042f0 <__do_global_dtors_aux>:
    42f0:	80 3d d1 ed 22 00 00 	cmp    BYTE PTR [rip+0x22edd1],0x0        # 2330c8 <__TMC_END__>
    42f7:	75 27                	jne    4320 <__do_global_dtors_aux+0x30>
    42f9:	48 83 3d d7 ec 22 00 	cmp    QWORD PTR [rip+0x22ecd7],0x0        # 232fd8 <__cxa_finalize@GLIBC_2.2.5>
    4300:	00 
    4301:	55                   	push   rbp
    4302:	48 89 e5             	mov    rbp,rsp
    4305:	74 0c                	je     4313 <__do_global_dtors_aux+0x23>
    4307:	48 8b 3d f2 ec 22 00 	mov    rdi,QWORD PTR [rip+0x22ecf2]        # 233000 <__dso_handle>
    430e:	e8 fd fe ff ff       	call   4210 <__cxa_finalize@plt>
    4313:	e8 48 ff ff ff       	call   4260 <deregister_tm_clones>
    4318:	5d                   	pop    rbp
    4319:	c6 05 a8 ed 22 00 01 	mov    BYTE PTR [rip+0x22eda8],0x1        # 2330c8 <__TMC_END__>
    4320:	f3 c3                	repz ret 
    4322:	0f 1f 40 00          	nop    DWORD PTR [rax+0x0]
    4326:	66 2e 0f 1f 84 00 00 	nop    WORD PTR cs:[rax+rax*1+0x0]
    432d:	00 00 00 

0000000000004330 <frame_dummy>:
    4330:	48 8d 3d 19 c9 22 00 	lea    rdi,[rip+0x22c919]        # 230c50 <__JCR_END__>
    4337:	48 83 3f 00          	cmp    QWORD PTR [rdi],0x0
    433b:	75 0b                	jne    4348 <frame_dummy+0x18>
    433d:	e9 5e ff ff ff       	jmp    42a0 <register_tm_clones>
    4342:	66 0f 1f 44 00 00    	nop    WORD PTR [rax+rax*1+0x0]
    4348:	48 8b 05 39 ec 22 00 	mov    rax,QWORD PTR [rip+0x22ec39]        # 232f88 <_Jv_RegisterClasses>
    434f:	48 85 c0             	test   rax,rax
    4352:	74 e9                	je     433d <frame_dummy+0xd>
    4354:	55                   	push   rbp
    4355:	48 89 e5             	mov    rbp,rsp
    4358:	ff d0                	call   rax
    435a:	5d                   	pop    rbp
    435b:	e9 40 ff ff ff       	jmp    42a0 <register_tm_clones>

0000000000004360 <_ZN33_$LT$alloc..vec..Vec$LT$T$GT$$GT$7reserve17hff3cdc1123f50b03E>:
    4360:	41 56                	push   r14
    4362:	53                   	push   rbx
    4363:	48 83 ec 38          	sub    rsp,0x38
    4367:	48 89 f0             	mov    rax,rsi
    436a:	48 89 fb             	mov    rbx,rdi
    436d:	48 8b 73 08          	mov    rsi,QWORD PTR [rbx+0x8]
    4371:	48 8b 4b 10          	mov    rcx,QWORD PTR [rbx+0x10]
    4375:	48 89 f2             	mov    rdx,rsi
    4378:	48 29 ca             	sub    rdx,rcx
    437b:	48 39 c2             	cmp    rdx,rax
    437e:	73 77                	jae    43f7 <_ZN33_$LT$alloc..vec..Vec$LT$T$GT$$GT$7reserve17hff3cdc1123f50b03E+0x97>
    4380:	48 01 c1             	add    rcx,rax
    4383:	72 7a                	jb     43ff <_ZN33_$LT$alloc..vec..Vec$LT$T$GT$$GT$7reserve17hff3cdc1123f50b03E+0x9f>
    4385:	4c 8d 34 36          	lea    r14,[rsi+rsi*1]
    4389:	4c 39 f1             	cmp    rcx,r14
    438c:	4c 0f 43 f1          	cmovae r14,rcx
    4390:	48 85 f6             	test   rsi,rsi
    4393:	74 27                	je     43bc <_ZN33_$LT$alloc..vec..Vec$LT$T$GT$$GT$7reserve17hff3cdc1123f50b03E+0x5c>
    4395:	48 8b 3b             	mov    rdi,QWORD PTR [rbx]
    4398:	4c 8d 4c 24 08       	lea    r9,[rsp+0x8]
    439d:	ba 01 00 00 00       	mov    edx,0x1
    43a2:	41 b8 01 00 00 00    	mov    r8d,0x1
    43a8:	4c 89 f1             	mov    rcx,r14
    43ab:	e8 d0 1e 00 00       	call   6280 <__rust_realloc>
    43b0:	48 85 c0             	test   rax,rax
    43b3:	75 1e                	jne    43d3 <_ZN33_$LT$alloc..vec..Vec$LT$T$GT$$GT$7reserve17hff3cdc1123f50b03E+0x73>
    43b5:	48 8b 44 24 08       	mov    rax,QWORD PTR [rsp+0x8]
    43ba:	eb 20                	jmp    43dc <_ZN33_$LT$alloc..vec..Vec$LT$T$GT$$GT$7reserve17hff3cdc1123f50b03E+0x7c>
    43bc:	48 8d 54 24 08       	lea    rdx,[rsp+0x8]
    43c1:	be 01 00 00 00       	mov    esi,0x1
    43c6:	4c 89 f7             	mov    rdi,r14
    43c9:	e8 82 1e 00 00       	call   6250 <__rust_alloc>
    43ce:	48 85 c0             	test   rax,rax
    43d1:	74 09                	je     43dc <_ZN33_$LT$alloc..vec..Vec$LT$T$GT$$GT$7reserve17hff3cdc1123f50b03E+0x7c>
    43d3:	31 c9                	xor    ecx,ecx
    43d5:	48 85 c9             	test   rcx,rcx
    43d8:	74 16                	je     43f0 <_ZN33_$LT$alloc..vec..Vec$LT$T$GT$$GT$7reserve17hff3cdc1123f50b03E+0x90>
    43da:	eb 34                	jmp    4410 <_ZN33_$LT$alloc..vec..Vec$LT$T$GT$$GT$7reserve17hff3cdc1123f50b03E+0xb0>
    43dc:	0f 10 44 24 10       	movups xmm0,XMMWORD PTR [rsp+0x10]
    43e1:	0f 29 44 24 20       	movaps XMMWORD PTR [rsp+0x20],xmm0
    43e6:	b9 01 00 00 00       	mov    ecx,0x1
    43eb:	48 85 c9             	test   rcx,rcx
    43ee:	75 20                	jne    4410 <_ZN33_$LT$alloc..vec..Vec$LT$T$GT$$GT$7reserve17hff3cdc1123f50b03E+0xb0>
    43f0:	48 89 03             	mov    QWORD PTR [rbx],rax
    43f3:	4c 89 73 08          	mov    QWORD PTR [rbx+0x8],r14
    43f7:	48 83 c4 38          	add    rsp,0x38
    43fb:	5b                   	pop    rbx
    43fc:	41 5e                	pop    r14
    43fe:	c3                   	ret    
    43ff:	48 8d 3d aa f5 01 00 	lea    rdi,[rip+0x1f5aa]        # 239b0 <str.d>
    4406:	be 11 00 00 00       	mov    esi,0x11
    440b:	e8 10 a5 01 00       	call   1e920 <_ZN4core6option13expect_failed17hea9c17570c15aad1E>
    4410:	48 89 44 24 08       	mov    QWORD PTR [rsp+0x8],rax
    4415:	0f 28 44 24 20       	movaps xmm0,XMMWORD PTR [rsp+0x20]
    441a:	0f 11 44 24 10       	movups XMMWORD PTR [rsp+0x10],xmm0
    441f:	48 8d 7c 24 08       	lea    rdi,[rsp+0x8]
    4424:	e8 87 03 00 00       	call   47b0 <_ZN61_$LT$alloc..heap..Heap$u20$as$u20$alloc..allocator..Alloc$GT$3oom17hba3f1ad762ab25d1E>
    4429:	0f 1f 80 00 00 00 00 	nop    DWORD PTR [rax+0x0]

0000000000004430 <_ZN36_$LT$T$u20$as$u20$core..any..Any$GT$11get_type_id17h90380a9c753da4baE>:
    4430:	48 b8 a6 a6 64 de ab 	movabs rax,0xee57f9abde64a6a6
    4437:	f9 57 ee 
    443a:	c3                   	ret    
    443b:	0f 1f 44 00 00       	nop    DWORD PTR [rax+rax*1+0x0]

0000000000004440 <_ZN3std9panicking11begin_panic17hd434d3b372e7da22E>:
    4440:	41 57                	push   r15
    4442:	41 56                	push   r14
    4444:	53                   	push   rbx
    4445:	48 83 ec 30          	sub    rsp,0x30
    4449:	49 89 d6             	mov    r14,rdx
    444c:	49 89 f7             	mov    r15,rsi
    444f:	48 89 fb             	mov    rbx,rdi
    4452:	48 8d 54 24 08       	lea    rdx,[rsp+0x8]
    4457:	bf 10 00 00 00       	mov    edi,0x10
    445c:	be 08 00 00 00       	mov    esi,0x8
    4461:	e8 ea 1d 00 00       	call   6250 <__rust_alloc>
    4466:	48 85 c0             	test   rax,rax
    4469:	75 27                	jne    4492 <_ZN3std9panicking11begin_panic17hd434d3b372e7da22E+0x52>
    446b:	0f 10 44 24 10       	movups xmm0,XMMWORD PTR [rsp+0x10]
    4470:	0f 29 44 24 20       	movaps XMMWORD PTR [rsp+0x20],xmm0
    4475:	48 c7 44 24 08 00 00 	mov    QWORD PTR [rsp+0x8],0x0
    447c:	00 00 
    447e:	0f 28 44 24 20       	movaps xmm0,XMMWORD PTR [rsp+0x20]
    4483:	0f 11 44 24 10       	movups XMMWORD PTR [rsp+0x10],xmm0
    4488:	48 8d 7c 24 08       	lea    rdi,[rsp+0x8]
    448d:	e8 1e 03 00 00       	call   47b0 <_ZN61_$LT$alloc..heap..Heap$u20$as$u20$alloc..allocator..Alloc$GT$3oom17hba3f1ad762ab25d1E>
    4492:	48 89 18             	mov    QWORD PTR [rax],rbx
    4495:	4c 89 78 08          	mov    QWORD PTR [rax+0x8],r15
    4499:	48 8d 35 10 c8 22 00 	lea    rsi,[rip+0x22c810]        # 230cb0 <vtable.4>
    44a0:	48 89 c7             	mov    rdi,rax
    44a3:	4c 89 f2             	mov    rdx,r14
    44a6:	e8 d5 1c 01 00       	call   16180 <_ZN3std9panicking20rust_panic_with_hook17h39252d3436106231E>
    44ab:	0f 1f 44 00 00       	nop    DWORD PTR [rax+rax*1+0x0]

00000000000044b0 <_ZN49_$LT$alloc..raw_vec..RawVec$LT$T$C$$u20$A$GT$$GT$6double17hee187990fa44ae01E>:
    44b0:	41 56                	push   r14
    44b2:	53                   	push   rbx
    44b3:	48 83 ec 48          	sub    rsp,0x48
    44b7:	48 89 fb             	mov    rbx,rdi
    44ba:	48 8b 73 08          	mov    rsi,QWORD PTR [rbx+0x8]
    44be:	48 85 f6             	test   rsi,rsi
    44c1:	74 3f                	je     4502 <_ZN49_$LT$alloc..raw_vec..RawVec$LT$T$C$$u20$A$GT$$GT$6double17hee187990fa44ae01E+0x52>
    44c3:	48 8b 3b             	mov    rdi,QWORD PTR [rbx]
    44c6:	4c 8d 4c 24 08       	lea    r9,[rsp+0x8]
    44cb:	4c 8d 34 36          	lea    r14,[rsi+rsi*1]
    44cf:	ba 01 00 00 00       	mov    edx,0x1
    44d4:	41 b8 01 00 00 00    	mov    r8d,0x1
    44da:	4c 89 f1             	mov    rcx,r14
    44dd:	e8 9e 1d 00 00       	call   6280 <__rust_realloc>
    44e2:	48 85 c0             	test   rax,rax
    44e5:	75 3a                	jne    4521 <_ZN49_$LT$alloc..raw_vec..RawVec$LT$T$C$$u20$A$GT$$GT$6double17hee187990fa44ae01E+0x71>
    44e7:	48 8b 44 24 08       	mov    rax,QWORD PTR [rsp+0x8]
    44ec:	0f 10 44 24 10       	movups xmm0,XMMWORD PTR [rsp+0x10]
    44f1:	0f 29 44 24 20       	movaps XMMWORD PTR [rsp+0x20],xmm0
    44f6:	48 89 44 24 08       	mov    QWORD PTR [rsp+0x8],rax
    44fb:	0f 28 44 24 20       	movaps xmm0,XMMWORD PTR [rsp+0x20]
    4500:	eb 47                	jmp    4549 <_ZN49_$LT$alloc..raw_vec..RawVec$LT$T$C$$u20$A$GT$$GT$6double17hee187990fa44ae01E+0x99>
    4502:	48 8d 54 24 08       	lea    rdx,[rsp+0x8]
    4507:	bf 04 00 00 00       	mov    edi,0x4
    450c:	be 01 00 00 00       	mov    esi,0x1
    4511:	e8 3a 1d 00 00       	call   6250 <__rust_alloc>
    4516:	48 85 c0             	test   rax,rax
    4519:	74 15                	je     4530 <_ZN49_$LT$alloc..raw_vec..RawVec$LT$T$C$$u20$A$GT$$GT$6double17hee187990fa44ae01E+0x80>
    451b:	41 be 04 00 00 00    	mov    r14d,0x4
    4521:	48 89 03             	mov    QWORD PTR [rbx],rax
    4524:	4c 89 73 08          	mov    QWORD PTR [rbx+0x8],r14
    4528:	48 83 c4 48          	add    rsp,0x48
    452c:	5b                   	pop    rbx
    452d:	41 5e                	pop    r14
    452f:	c3                   	ret    
    4530:	0f 10 44 24 10       	movups xmm0,XMMWORD PTR [rsp+0x10]
    4535:	0f 29 44 24 20       	movaps XMMWORD PTR [rsp+0x20],xmm0
    453a:	0f 28 44 24 20       	movaps xmm0,XMMWORD PTR [rsp+0x20]
    453f:	0f 29 44 24 30       	movaps XMMWORD PTR [rsp+0x30],xmm0
    4544:	0f 28 44 24 30       	movaps xmm0,XMMWORD PTR [rsp+0x30]
    4549:	0f 11 44 24 10       	movups XMMWORD PTR [rsp+0x10],xmm0
    454e:	48 8d 7c 24 08       	lea    rdi,[rsp+0x8]
    4553:	e8 58 02 00 00       	call   47b0 <_ZN61_$LT$alloc..heap..Heap$u20$as$u20$alloc..allocator..Alloc$GT$3oom17hba3f1ad762ab25d1E>
    4558:	0f 1f 84 00 00 00 00 	nop    DWORD PTR [rax+rax*1+0x0]
    455f:	00 

0000000000004560 <_ZN4core3ptr13drop_in_place17h4da26dd4571c256fE>:
    4560:	48 8b 77 08          	mov    rsi,QWORD PTR [rdi+0x8]
    4564:	48 85 f6             	test   rsi,rsi
    4567:	74 0d                	je     4576 <_ZN4core3ptr13drop_in_place17h4da26dd4571c256fE+0x16>
    4569:	48 8b 3f             	mov    rdi,QWORD PTR [rdi]
    456c:	ba 01 00 00 00       	mov    edx,0x1
    4571:	e9 fa 1c 00 00       	jmp    6270 <__rust_dealloc>
    4576:	c3                   	ret    
    4577:	66 0f 1f 84 00 00 00 	nop    WORD PTR [rax+rax*1+0x0]
    457e:	00 00 

0000000000004580 <_ZN4core3ptr13drop_in_place17h595ab85317e07b89E>:
    4580:	c3                   	ret    
    4581:	66 2e 0f 1f 84 00 00 	nop    WORD PTR cs:[rax+rax*1+0x0]
    4588:	00 00 00 
    458b:	0f 1f 44 00 00       	nop    DWORD PTR [rax+rax*1+0x0]

0000000000004590 <_ZN4core3ptr13drop_in_place17hc6007a3fecb81cd3E>:
    4590:	48 8b 77 08          	mov    rsi,QWORD PTR [rdi+0x8]
    4594:	48 85 f6             	test   rsi,rsi
    4597:	74 0d                	je     45a6 <_ZN4core3ptr13drop_in_place17hc6007a3fecb81cd3E+0x16>
    4599:	48 8b 3f             	mov    rdi,QWORD PTR [rdi]
    459c:	ba 01 00 00 00       	mov    edx,0x1
    45a1:	e9 ca 1c 00 00       	jmp    6270 <__rust_dealloc>
    45a6:	c3                   	ret    
    45a7:	66 0f 1f 84 00 00 00 	nop    WORD PTR [rax+rax*1+0x0]
    45ae:	00 00 

00000000000045b0 <_ZN4core3ptr13drop_in_place17hc852219a408ce6f6E>:
    45b0:	48 8b 77 08          	mov    rsi,QWORD PTR [rdi+0x8]
    45b4:	48 85 f6             	test   rsi,rsi
    45b7:	74 0d                	je     45c6 <_ZN4core3ptr13drop_in_place17hc852219a408ce6f6E+0x16>
    45b9:	48 8b 3f             	mov    rdi,QWORD PTR [rdi]
    45bc:	ba 01 00 00 00       	mov    edx,0x1
    45c1:	e9 aa 1c 00 00       	jmp    6270 <__rust_dealloc>
    45c6:	c3                   	ret    
    45c7:	66 0f 1f 84 00 00 00 	nop    WORD PTR [rax+rax*1+0x0]
    45ce:	00 00 

00000000000045d0 <_ZN4core3ptr13drop_in_place17hdd355b5c28e0794fE>:
    45d0:	48 8b 77 08          	mov    rsi,QWORD PTR [rdi+0x8]
    45d4:	48 85 f6             	test   rsi,rsi
    45d7:	74 11                	je     45ea <_ZN4core3ptr13drop_in_place17hdd355b5c28e0794fE+0x1a>
    45d9:	48 8b 3f             	mov    rdi,QWORD PTR [rdi]
    45dc:	48 c1 e6 02          	shl    rsi,0x2
    45e0:	ba 04 00 00 00       	mov    edx,0x4
    45e5:	e9 86 1c 00 00       	jmp    6270 <__rust_dealloc>
    45ea:	c3                   	ret    
    45eb:	0f 1f 44 00 00       	nop    DWORD PTR [rax+rax*1+0x0]

00000000000045f0 <_ZN4core3ptr13drop_in_place17he450d81916622ecaE>:
    45f0:	48 89 f8             	mov    rax,rdi
    45f3:	48 8b 38             	mov    rdi,QWORD PTR [rax]
    45f6:	48 ff 0f             	dec    QWORD PTR [rdi]
    45f9:	48 8b 08             	mov    rcx,QWORD PTR [rax]
    45fc:	48 83 39 00          	cmp    QWORD PTR [rcx],0x0
    4600:	75 0e                	jne    4610 <_ZN4core3ptr13drop_in_place17he450d81916622ecaE+0x20>
    4602:	48 ff 49 08          	dec    QWORD PTR [rcx+0x8]
    4606:	48 8b 00             	mov    rax,QWORD PTR [rax]
    4609:	48 83 78 08 00       	cmp    QWORD PTR [rax+0x8],0x0
    460e:	74 01                	je     4611 <_ZN4core3ptr13drop_in_place17he450d81916622ecaE+0x21>
    4610:	c3                   	ret    
    4611:	be 48 10 00 00       	mov    esi,0x1048
    4616:	ba 08 00 00 00       	mov    edx,0x8
    461b:	e9 50 1c 00 00       	jmp    6270 <__rust_dealloc>

0000000000004620 <_ZN4core6result13unwrap_failed17h0443084306b5789fE>:
    4620:	53                   	push   rbx
    4621:	48 81 ec 90 00 00 00 	sub    rsp,0x90
    4628:	48 8d 05 51 f3 01 00 	lea    rax,[rip+0x1f351]        # 23980 <str.c>
    462f:	48 89 04 24          	mov    QWORD PTR [rsp],rax
    4633:	48 c7 44 24 08 2b 00 	mov    QWORD PTR [rsp+0x8],0x2b
    463a:	00 00 
    463c:	48 8b 47 20          	mov    rax,QWORD PTR [rdi+0x20]
    4640:	48 89 44 24 50       	mov    QWORD PTR [rsp+0x50],rax
    4645:	0f 10 07             	movups xmm0,XMMWORD PTR [rdi]
    4648:	0f 10 4f 10          	movups xmm1,XMMWORD PTR [rdi+0x10]
    464c:	0f 29 4c 24 40       	movaps XMMWORD PTR [rsp+0x40],xmm1
    4651:	0f 29 44 24 30       	movaps XMMWORD PTR [rsp+0x30],xmm0
    4656:	48 89 e0             	mov    rax,rsp
    4659:	48 89 44 24 10       	mov    QWORD PTR [rsp+0x10],rax
    465e:	48 8d 05 0b 01 00 00 	lea    rax,[rip+0x10b]        # 4770 <_ZN55_$LT$$RF$$u27$a$u20$T$u20$as$u20$core..fmt..Display$GT$3fmt17h5a42737e80ae02e7E>
    4665:	48 89 44 24 18       	mov    QWORD PTR [rsp+0x18],rax
    466a:	48 8d 44 24 30       	lea    rax,[rsp+0x30]
    466f:	48 89 44 24 20       	mov    QWORD PTR [rsp+0x20],rax
    4674:	48 8d 05 c5 94 01 00 	lea    rax,[rip+0x194c5]        # 1db40 <_ZN65_$LT$alloc..string..FromUtf8Error$u20$as$u20$core..fmt..Debug$GT$3fmt17hd04dfa642721cc88E>
    467b:	48 89 44 24 28       	mov    QWORD PTR [rsp+0x28],rax
    4680:	48 8d 05 49 c6 22 00 	lea    rax,[rip+0x22c649]        # 230cd0 <ref.o>
    4687:	48 89 44 24 60       	mov    QWORD PTR [rsp+0x60],rax
    468c:	48 c7 44 24 68 02 00 	mov    QWORD PTR [rsp+0x68],0x2
    4693:	00 00 
    4695:	48 c7 44 24 70 00 00 	mov    QWORD PTR [rsp+0x70],0x0
    469c:	00 00 
    469e:	48 8d 44 24 10       	lea    rax,[rsp+0x10]
    46a3:	48 89 84 24 80 00 00 	mov    QWORD PTR [rsp+0x80],rax
    46aa:	00 
    46ab:	48 c7 84 24 88 00 00 	mov    QWORD PTR [rsp+0x88],0x2
    46b2:	00 02 00 00 00 
    46b7:	48 8d 35 32 c6 22 00 	lea    rsi,[rip+0x22c632]        # 230cf0 <ref.q>
    46be:	48 8d 7c 24 60       	lea    rdi,[rsp+0x60]
    46c3:	e8 f8 a1 01 00       	call   1e8c0 <_ZN4core9panicking9panic_fmt17h802c7d84595ae780E>
    46c8:	48 89 c3             	mov    rbx,rax
    46cb:	48 8d 7c 24 30       	lea    rdi,[rsp+0x30]
    46d0:	e8 db fe ff ff       	call   45b0 <_ZN4core3ptr13drop_in_place17hc852219a408ce6f6E>
    46d5:	48 89 df             	mov    rdi,rbx
    46d8:	e8 23 fb ff ff       	call   4200 <_Unwind_Resume@plt>
    46dd:	0f 1f 00             	nop    DWORD PTR [rax]

00000000000046e0 <_ZN4core6result13unwrap_failed17hd73485f0fdec7871E>:
    46e0:	48 83 ec 78          	sub    rsp,0x78
    46e4:	48 8d 05 95 f2 01 00 	lea    rax,[rip+0x1f295]        # 23980 <str.c>
    46eb:	48 89 04 24          	mov    QWORD PTR [rsp],rax
    46ef:	48 c7 44 24 08 2b 00 	mov    QWORD PTR [rsp+0x8],0x2b
    46f6:	00 00 
    46f8:	0f 10 07             	movups xmm0,XMMWORD PTR [rdi]
    46fb:	0f 29 44 24 30       	movaps XMMWORD PTR [rsp+0x30],xmm0
    4700:	48 89 e0             	mov    rax,rsp
    4703:	48 89 44 24 10       	mov    QWORD PTR [rsp+0x10],rax
    4708:	48 8d 05 61 00 00 00 	lea    rax,[rip+0x61]        # 4770 <_ZN55_$LT$$RF$$u27$a$u20$T$u20$as$u20$core..fmt..Display$GT$3fmt17h5a42737e80ae02e7E>
    470f:	48 89 44 24 18       	mov    QWORD PTR [rsp+0x18],rax
    4714:	48 8d 44 24 30       	lea    rax,[rsp+0x30]
    4719:	48 89 44 24 20       	mov    QWORD PTR [rsp+0x20],rax
    471e:	48 8d 05 ab 2d 00 00 	lea    rax,[rip+0x2dab]        # 74d0 <_ZN64_$LT$base64..decode..DecodeError$u20$as$u20$core..fmt..Debug$GT$3fmt17he905ad8c663e3611E>
    4725:	48 89 44 24 28       	mov    QWORD PTR [rsp+0x28],rax
    472a:	48 8d 05 9f c5 22 00 	lea    rax,[rip+0x22c59f]        # 230cd0 <ref.o>
    4731:	48 89 44 24 48       	mov    QWORD PTR [rsp+0x48],rax
    4736:	48 c7 44 24 50 02 00 	mov    QWORD PTR [rsp+0x50],0x2
    473d:	00 00 
    473f:	48 c7 44 24 58 00 00 	mov    QWORD PTR [rsp+0x58],0x0
    4746:	00 00 
    4748:	48 8d 44 24 10       	lea    rax,[rsp+0x10]
    474d:	48 89 44 24 68       	mov    QWORD PTR [rsp+0x68],rax
    4752:	48 c7 44 24 70 02 00 	mov    QWORD PTR [rsp+0x70],0x2
    4759:	00 00 
    475b:	48 8d 35 8e c5 22 00 	lea    rsi,[rip+0x22c58e]        # 230cf0 <ref.q>
    4762:	48 8d 7c 24 48       	lea    rdi,[rsp+0x48]
    4767:	e8 54 a1 01 00       	call   1e8c0 <_ZN4core9panicking9panic_fmt17h802c7d84595ae780E>
    476c:	0f 1f 40 00          	nop    DWORD PTR [rax+0x0]

0000000000004770 <_ZN55_$LT$$RF$$u27$a$u20$T$u20$as$u20$core..fmt..Display$GT$3fmt17h5a42737e80ae02e7E>:
    4770:	48 89 f0             	mov    rax,rsi
    4773:	48 8b 0f             	mov    rcx,QWORD PTR [rdi]
    4776:	48 8b 77 08          	mov    rsi,QWORD PTR [rdi+0x8]
    477a:	48 89 cf             	mov    rdi,rcx
    477d:	48 89 c2             	mov    rdx,rax
    4780:	e9 8b d0 01 00       	jmp    21810 <_ZN42_$LT$str$u20$as$u20$core..fmt..Display$GT$3fmt17ha77ab0c4fc3376b3E>
    4785:	66 2e 0f 1f 84 00 00 	nop    WORD PTR cs:[rax+rax*1+0x0]
    478c:	00 00 00 
    478f:	90                   	nop

0000000000004790 <_ZN60_$LT$alloc..string..String$u20$as$u20$core..fmt..Display$GT$3fmt17hdafee51ac588e3beE>:
    4790:	48 89 f0             	mov    rax,rsi
    4793:	48 8b 0f             	mov    rcx,QWORD PTR [rdi]
    4796:	48 8b 77 10          	mov    rsi,QWORD PTR [rdi+0x10]
    479a:	48 89 cf             	mov    rdi,rcx
    479d:	48 89 c2             	mov    rdx,rax
    47a0:	e9 6b d0 01 00       	jmp    21810 <_ZN42_$LT$str$u20$as$u20$core..fmt..Display$GT$3fmt17ha77ab0c4fc3376b3E>
    47a5:	66 2e 0f 1f 84 00 00 	nop    WORD PTR cs:[rax+rax*1+0x0]
    47ac:	00 00 00 
    47af:	90                   	nop

00000000000047b0 <_ZN61_$LT$alloc..heap..Heap$u20$as$u20$alloc..allocator..Alloc$GT$3oom17hba3f1ad762ab25d1E>:
    47b0:	48 83 ec 18          	sub    rsp,0x18
    47b4:	48 8b 47 10          	mov    rax,QWORD PTR [rdi+0x10]
    47b8:	48 89 44 24 10       	mov    QWORD PTR [rsp+0x10],rax
    47bd:	0f 10 07             	movups xmm0,XMMWORD PTR [rdi]
    47c0:	0f 29 04 24          	movaps XMMWORD PTR [rsp],xmm0
    47c4:	48 89 e7             	mov    rdi,rsp
    47c7:	e8 94 1a 00 00       	call   6260 <__rust_oom>
    47cc:	0f 1f 40 00          	nop    DWORD PTR [rax+0x0]

00000000000047d0 <_ZN6binary4main17hf421c7ec894951b1E>:
    47d0:	55                   	push   rbp
    47d1:	41 57                	push   r15
    47d3:	41 56                	push   r14
    47d5:	41 55                	push   r13
    47d7:	41 54                	push   r12
    47d9:	53                   	push   rbx
    47da:	48 81 ec 88 01 00 00 	sub    rsp,0x188
    47e1:	48 8d 05 48 c6 22 00 	lea    rax,[rip+0x22c648]        # 230e30 <ref.1v>
    47e8:	48 89 04 24          	mov    QWORD PTR [rsp],rax
    47ec:	48 c7 44 24 08 01 00 	mov    QWORD PTR [rsp+0x8],0x1
    47f3:	00 00 
    47f5:	48 c7 44 24 10 00 00 	mov    QWORD PTR [rsp+0x10],0x0
    47fc:	00 00 
    47fe:	48 8d 1d 5b f4 01 00 	lea    rbx,[rip+0x1f45b]        # 23c60 <str.1x>
    4805:	48 89 5c 24 20       	mov    QWORD PTR [rsp+0x20],rbx
    480a:	48 c7 44 24 28 00 00 	mov    QWORD PTR [rsp+0x28],0x0
    4811:	00 00 
    4813:	48 89 e7             	mov    rdi,rsp
    4816:	e8 a5 a3 00 00       	call   ebc0 <_ZN3std2io5stdio6_print17ha2600cbffab86873E>
    481b:	48 8d 05 1e c6 22 00 	lea    rax,[rip+0x22c61e]        # 230e40 <ref.1y>
    4822:	48 89 04 24          	mov    QWORD PTR [rsp],rax
    4826:	48 c7 44 24 08 01 00 	mov    QWORD PTR [rsp+0x8],0x1
    482d:	00 00 
    482f:	48 c7 44 24 10 00 00 	mov    QWORD PTR [rsp+0x10],0x0
    4836:	00 00 
    4838:	48 89 5c 24 20       	mov    QWORD PTR [rsp+0x20],rbx
    483d:	48 c7 44 24 28 00 00 	mov    QWORD PTR [rsp+0x28],0x0
    4844:	00 00 
    4846:	48 89 e7             	mov    rdi,rsp
    4849:	e8 72 a3 00 00       	call   ebc0 <_ZN3std2io5stdio6_print17ha2600cbffab86873E>
    484e:	48 8d 2d fb c5 22 00 	lea    rbp,[rip+0x22c5fb]        # 230e50 <ref.1A>
    4855:	48 89 2c 24          	mov    QWORD PTR [rsp],rbp
    4859:	48 c7 44 24 08 01 00 	mov    QWORD PTR [rsp+0x8],0x1
    4860:	00 00 
    4862:	48 c7 44 24 10 00 00 	mov    QWORD PTR [rsp+0x10],0x0
    4869:	00 00 
    486b:	48 89 5c 24 20       	mov    QWORD PTR [rsp+0x20],rbx
    4870:	48 c7 44 24 28 00 00 	mov    QWORD PTR [rsp+0x28],0x0
    4877:	00 00 
    4879:	48 89 e7             	mov    rdi,rsp
    487c:	e8 3f a3 00 00       	call   ebc0 <_ZN3std2io5stdio6_print17ha2600cbffab86873E>
    4881:	48 8d 05 d8 c5 22 00 	lea    rax,[rip+0x22c5d8]        # 230e60 <ref.1C>
    4888:	48 89 04 24          	mov    QWORD PTR [rsp],rax
    488c:	48 c7 44 24 08 01 00 	mov    QWORD PTR [rsp+0x8],0x1
    4893:	00 00 
    4895:	48 c7 44 24 10 00 00 	mov    QWORD PTR [rsp+0x10],0x0
    489c:	00 00 
    489e:	48 89 5c 24 20       	mov    QWORD PTR [rsp+0x20],rbx
    48a3:	48 c7 44 24 28 00 00 	mov    QWORD PTR [rsp+0x28],0x0
    48aa:	00 00 
    48ac:	48 89 e7             	mov    rdi,rsp
    48af:	e8 0c a3 00 00       	call   ebc0 <_ZN3std2io5stdio6_print17ha2600cbffab86873E>
    48b4:	48 8d 05 b5 c5 22 00 	lea    rax,[rip+0x22c5b5]        # 230e70 <ref.1E>
    48bb:	48 89 04 24          	mov    QWORD PTR [rsp],rax
    48bf:	48 c7 44 24 08 01 00 	mov    QWORD PTR [rsp+0x8],0x1
    48c6:	00 00 
    48c8:	48 c7 44 24 10 00 00 	mov    QWORD PTR [rsp+0x10],0x0
    48cf:	00 00 
    48d1:	48 89 5c 24 20       	mov    QWORD PTR [rsp+0x20],rbx
    48d6:	48 c7 44 24 28 00 00 	mov    QWORD PTR [rsp+0x28],0x0
    48dd:	00 00 
    48df:	48 89 e7             	mov    rdi,rsp
    48e2:	e8 d9 a2 00 00       	call   ebc0 <_ZN3std2io5stdio6_print17ha2600cbffab86873E>
    48e7:	48 89 2c 24          	mov    QWORD PTR [rsp],rbp
    48eb:	48 c7 44 24 08 01 00 	mov    QWORD PTR [rsp+0x8],0x1
    48f2:	00 00 
    48f4:	48 c7 44 24 10 00 00 	mov    QWORD PTR [rsp+0x10],0x0
    48fb:	00 00 
    48fd:	48 89 5c 24 20       	mov    QWORD PTR [rsp+0x20],rbx
    4902:	48 c7 44 24 28 00 00 	mov    QWORD PTR [rsp+0x28],0x0
    4909:	00 00 
    490b:	48 89 e7             	mov    rdi,rsp
    490e:	e8 ad a2 00 00       	call   ebc0 <_ZN3std2io5stdio6_print17ha2600cbffab86873E>
    4913:	48 8d 05 66 c5 22 00 	lea    rax,[rip+0x22c566]        # 230e80 <ref.1G>
    491a:	48 89 04 24          	mov    QWORD PTR [rsp],rax
    491e:	48 c7 44 24 08 01 00 	mov    QWORD PTR [rsp+0x8],0x1
    4925:	00 00 
    4927:	48 c7 44 24 10 00 00 	mov    QWORD PTR [rsp+0x10],0x0
    492e:	00 00 
    4930:	48 89 5c 24 20       	mov    QWORD PTR [rsp+0x20],rbx
    4935:	48 c7 44 24 28 00 00 	mov    QWORD PTR [rsp+0x28],0x0
    493c:	00 00 
    493e:	48 89 e7             	mov    rdi,rsp
    4941:	e8 7a a2 00 00       	call   ebc0 <_ZN3std2io5stdio6_print17ha2600cbffab86873E>
    4946:	48 8d 05 43 c5 22 00 	lea    rax,[rip+0x22c543]        # 230e90 <ref.1I>
    494d:	48 89 04 24          	mov    QWORD PTR [rsp],rax
    4951:	48 c7 44 24 08 01 00 	mov    QWORD PTR [rsp+0x8],0x1
    4958:	00 00 
    495a:	48 c7 44 24 10 00 00 	mov    QWORD PTR [rsp+0x10],0x0
    4961:	00 00 
    4963:	48 89 5c 24 20       	mov    QWORD PTR [rsp+0x20],rbx
    4968:	48 c7 44 24 28 00 00 	mov    QWORD PTR [rsp+0x28],0x0
    496f:	00 00 
    4971:	48 89 e7             	mov    rdi,rsp
    4974:	e8 47 a2 00 00       	call   ebc0 <_ZN3std2io5stdio6_print17ha2600cbffab86873E>
    4979:	48 89 2c 24          	mov    QWORD PTR [rsp],rbp
    497d:	48 c7 44 24 08 01 00 	mov    QWORD PTR [rsp+0x8],0x1
    4984:	00 00 
    4986:	48 c7 44 24 10 00 00 	mov    QWORD PTR [rsp+0x10],0x0
    498d:	00 00 
    498f:	48 89 5c 24 20       	mov    QWORD PTR [rsp+0x20],rbx
    4994:	48 c7 44 24 28 00 00 	mov    QWORD PTR [rsp+0x28],0x0
    499b:	00 00 
    499d:	48 89 e7             	mov    rdi,rsp
    49a0:	e8 1b a2 00 00       	call   ebc0 <_ZN3std2io5stdio6_print17ha2600cbffab86873E>
    49a5:	48 8d 05 f4 c4 22 00 	lea    rax,[rip+0x22c4f4]        # 230ea0 <ref.1K>
    49ac:	48 89 04 24          	mov    QWORD PTR [rsp],rax
    49b0:	48 c7 44 24 08 01 00 	mov    QWORD PTR [rsp+0x8],0x1
    49b7:	00 00 
    49b9:	48 c7 44 24 10 00 00 	mov    QWORD PTR [rsp+0x10],0x0
    49c0:	00 00 
    49c2:	48 89 5c 24 20       	mov    QWORD PTR [rsp+0x20],rbx
    49c7:	48 c7 44 24 28 00 00 	mov    QWORD PTR [rsp+0x28],0x0
    49ce:	00 00 
    49d0:	48 89 e7             	mov    rdi,rsp
    49d3:	e8 e8 a1 00 00       	call   ebc0 <_ZN3std2io5stdio6_print17ha2600cbffab86873E>
    49d8:	48 8d 05 d1 c4 22 00 	lea    rax,[rip+0x22c4d1]        # 230eb0 <ref.1M>
    49df:	48 89 04 24          	mov    QWORD PTR [rsp],rax
    49e3:	48 c7 44 24 08 01 00 	mov    QWORD PTR [rsp+0x8],0x1
    49ea:	00 00 
    49ec:	48 c7 44 24 10 00 00 	mov    QWORD PTR [rsp+0x10],0x0
    49f3:	00 00 
    49f5:	48 89 5c 24 20       	mov    QWORD PTR [rsp+0x20],rbx
    49fa:	48 c7 44 24 28 00 00 	mov    QWORD PTR [rsp+0x28],0x0
    4a01:	00 00 
    4a03:	48 89 e7             	mov    rdi,rsp
    4a06:	e8 b5 a1 00 00       	call   ebc0 <_ZN3std2io5stdio6_print17ha2600cbffab86873E>
    4a0b:	48 89 2c 24          	mov    QWORD PTR [rsp],rbp
    4a0f:	48 c7 44 24 08 01 00 	mov    QWORD PTR [rsp+0x8],0x1
    4a16:	00 00 
    4a18:	48 c7 44 24 10 00 00 	mov    QWORD PTR [rsp+0x10],0x0
    4a1f:	00 00 
    4a21:	48 89 5c 24 20       	mov    QWORD PTR [rsp+0x20],rbx
    4a26:	48 c7 44 24 28 00 00 	mov    QWORD PTR [rsp+0x28],0x0
    4a2d:	00 00 
    4a2f:	48 89 e7             	mov    rdi,rsp
    4a32:	e8 89 a1 00 00       	call   ebc0 <_ZN3std2io5stdio6_print17ha2600cbffab86873E>
    4a37:	e8 54 45 00 00       	call   8f90 <_ZN4rand10thread_rng17h1651a4bbdda9bcb3E>
    4a3c:	48 89 84 24 18 01 00 	mov    QWORD PTR [rsp+0x118],rax
    4a43:	00 
    4a44:	48 89 e2             	mov    rdx,rsp
    4a47:	bf 08 00 00 00       	mov    edi,0x8
    4a4c:	be 04 00 00 00       	mov    esi,0x4
    4a51:	e8 fa 17 00 00       	call   6250 <__rust_alloc>
    4a56:	48 89 c3             	mov    rbx,rax
    4a59:	48 85 db             	test   rbx,rbx
    4a5c:	0f 84 1b 16 00 00    	je     607d <_ZN6binary4main17hf421c7ec894951b1E+0x18ad>
    4a62:	c7 03 20 00 00 00    	mov    DWORD PTR [rbx],0x20
    4a68:	c7 43 04 20 00 00 00 	mov    DWORD PTR [rbx+0x4],0x20
    4a6f:	48 89 9c 24 60 01 00 	mov    QWORD PTR [rsp+0x160],rbx
    4a76:	00 
    4a77:	66 0f 6f 05 51 ee 01 	movdqa xmm0,XMMWORD PTR [rip+0x1ee51]        # 238d0 <_fini+0xc>
    4a7e:	00 
    4a7f:	f3 0f 7f 84 24 68 01 	movdqu XMMWORD PTR [rsp+0x168],xmm0
    4a86:	00 00 
    4a88:	48 8d ac 24 18 01 00 	lea    rbp,[rsp+0x118]
    4a8f:	00 
    4a90:	48 89 ef             	mov    rdi,rbp
    4a93:	e8 c8 45 00 00       	call   9060 <_ZN45_$LT$rand..ThreadRng$u20$as$u20$rand..Rng$GT$8next_u6417h787408e0787d47d2E>
    4a98:	48 83 f8 fd          	cmp    rax,0xfffffffffffffffd
    4a9c:	77 f2                	ja     4a90 <_ZN6binary4main17hf421c7ec894951b1E+0x2c0>
    4a9e:	83 e0 01             	and    eax,0x1
    4aa1:	48 c1 e0 02          	shl    rax,0x2
    4aa5:	48 01 c3             	add    rbx,rax
    4aa8:	0f 84 f1 15 00 00    	je     609f <_ZN6binary4main17hf421c7ec894951b1E+0x18cf>
    4aae:	8a 03                	mov    al,BYTE PTR [rbx]
    4ab0:	0f 28 05 29 ee 01 00 	movaps xmm0,XMMWORD PTR [rip+0x1ee29]        # 238e0 <_fini+0x1c>
    4ab7:	0f 29 84 24 a0 00 00 	movaps XMMWORD PTR [rsp+0xa0],xmm0
    4abe:	00 
    4abf:	0f 28 05 2a ee 01 00 	movaps xmm0,XMMWORD PTR [rip+0x1ee2a]        # 238f0 <_fini+0x2c>
    4ac6:	0f 29 84 24 b0 00 00 	movaps XMMWORD PTR [rsp+0xb0],xmm0
    4acd:	00 
    4ace:	c6 84 24 c0 00 00 00 	mov    BYTE PTR [rsp+0xc0],0x67
    4ad5:	67 
    4ad6:	c6 84 24 c1 00 00 00 	mov    BYTE PTR [rsp+0xc1],0x6f
    4add:	6f 
    4ade:	c6 84 24 c2 00 00 00 	mov    BYTE PTR [rsp+0xc2],0x6f
    4ae5:	6f 
    4ae6:	c6 84 24 c3 00 00 00 	mov    BYTE PTR [rsp+0xc3],0x64
    4aed:	64 
    4aee:	c6 84 24 c4 00 00 00 	mov    BYTE PTR [rsp+0xc4],0x5f
    4af5:	5f 
    4af6:	c6 84 24 c5 00 00 00 	mov    BYTE PTR [rsp+0xc5],0x74
    4afd:	74 
    4afe:	c6 84 24 c6 00 00 00 	mov    BYTE PTR [rsp+0xc6],0x69
    4b05:	69 
    4b06:	c6 84 24 c7 00 00 00 	mov    BYTE PTR [rsp+0xc7],0x6d
    4b0d:	6d 
    4b0e:	c6 84 24 c8 00 00 00 	mov    BYTE PTR [rsp+0xc8],0x69
    4b15:	69 
    4b16:	c6 84 24 c9 00 00 00 	mov    BYTE PTR [rsp+0xc9],0x6e
    4b1d:	6e 
    4b1e:	c6 84 24 ca 00 00 00 	mov    BYTE PTR [rsp+0xca],0x67
    4b25:	67 
    4b26:	88 84 24 cb 00 00 00 	mov    BYTE PTR [rsp+0xcb],al
    4b2d:	48 8b 05 ec ef 01 00 	mov    rax,QWORD PTR [rip+0x1efec]        # 23b20 <const.1m+0x10>
    4b34:	48 89 84 24 f0 00 00 	mov    QWORD PTR [rsp+0xf0],rax
    4b3b:	00 
    4b3c:	f3 0f 6f 05 cc ef 01 	movdqu xmm0,XMMWORD PTR [rip+0x1efcc]        # 23b10 <const.1m>
    4b43:	00 
    4b44:	66 0f 7f 84 24 e0 00 	movdqa XMMWORD PTR [rsp+0xe0],xmm0
    4b4b:	00 00 
    4b4d:	48 8d 7c 24 40       	lea    rdi,[rsp+0x40]
    4b52:	48 8d 94 24 e0 00 00 	lea    rdx,[rsp+0xe0]
    4b59:	00 
    4b5a:	be 2c 00 00 00       	mov    esi,0x2c
    4b5f:	e8 3c 25 00 00       	call   70a0 <_ZN6base646encode12encoded_size17h43525f70931340cdE>
    4b64:	48 83 7c 24 40 00    	cmp    QWORD PTR [rsp+0x40],0x0
    4b6a:	0f 84 3b 15 00 00    	je     60ab <_ZN6binary4main17hf421c7ec894951b1E+0x18db>
    4b70:	48 8b 5c 24 48       	mov    rbx,QWORD PTR [rsp+0x48]
    4b75:	48 85 db             	test   rbx,rbx
    4b78:	74 1d                	je     4b97 <_ZN6binary4main17hf421c7ec894951b1E+0x3c7>
    4b7a:	48 89 e2             	mov    rdx,rsp
    4b7d:	be 01 00 00 00       	mov    esi,0x1
    4b82:	48 89 df             	mov    rdi,rbx
    4b85:	e8 c6 16 00 00       	call   6250 <__rust_alloc>
    4b8a:	49 89 c6             	mov    r14,rax
    4b8d:	4d 85 f6             	test   r14,r14
    4b90:	75 0b                	jne    4b9d <_ZN6binary4main17hf421c7ec894951b1E+0x3cd>
    4b92:	e9 99 11 00 00       	jmp    5d30 <_ZN6binary4main17hf421c7ec894951b1E+0x1560>
    4b97:	41 be 01 00 00 00    	mov    r14d,0x1
    4b9d:	4c 89 74 24 70       	mov    QWORD PTR [rsp+0x70],r14
    4ba2:	48 89 5c 24 78       	mov    QWORD PTR [rsp+0x78],rbx
    4ba7:	48 c7 84 24 80 00 00 	mov    QWORD PTR [rsp+0x80],0x0
    4bae:	00 00 00 00 00 
    4bb3:	48 8b 84 24 f0 00 00 	mov    rax,QWORD PTR [rsp+0xf0]
    4bba:	00 
    4bbb:	48 89 44 24 10       	mov    QWORD PTR [rsp+0x10],rax
    4bc0:	66 0f 6f 84 24 e0 00 	movdqa xmm0,XMMWORD PTR [rsp+0xe0]
    4bc7:	00 00 
    4bc9:	66 0f 7f 04 24       	movdqa XMMWORD PTR [rsp],xmm0
    4bce:	48 8d 7c 24 40       	lea    rdi,[rsp+0x40]
    4bd3:	48 89 e2             	mov    rdx,rsp
    4bd6:	be 2c 00 00 00       	mov    esi,0x2c
    4bdb:	e8 c0 24 00 00       	call   70a0 <_ZN6base646encode12encoded_size17h43525f70931340cdE>
    4be0:	48 83 7c 24 40 00    	cmp    QWORD PTR [rsp+0x40],0x0
    4be6:	0f 84 d7 14 00 00    	je     60c3 <_ZN6binary4main17hf421c7ec894951b1E+0x18f3>
    4bec:	48 8b 6c 24 48       	mov    rbp,QWORD PTR [rsp+0x48]
    4bf1:	48 85 ed             	test   rbp,rbp
    4bf4:	74 48                	je     4c3e <_ZN6binary4main17hf421c7ec894951b1E+0x46e>
    4bf6:	48 8d 7c 24 70       	lea    rdi,[rsp+0x70]
    4bfb:	48 89 ee             	mov    rsi,rbp
    4bfe:	e8 5d f7 ff ff       	call   4360 <_ZN33_$LT$alloc..vec..Vec$LT$T$GT$$GT$7reserve17hff3cdc1123f50b03E>
    4c03:	4c 8b 74 24 70       	mov    r14,QWORD PTR [rsp+0x70]
    4c08:	48 8b 9c 24 80 00 00 	mov    rbx,QWORD PTR [rsp+0x80]
    4c0f:	00 
    4c10:	49 8d 3c 1e          	lea    rdi,[r14+rbx*1]
    4c14:	48 83 fd 02          	cmp    rbp,0x2
    4c18:	72 14                	jb     4c2e <_ZN6binary4main17hf421c7ec894951b1E+0x45e>
    4c1a:	48 8d 55 ff          	lea    rdx,[rbp-0x1]
    4c1e:	48 8d 5c 2b ff       	lea    rbx,[rbx+rbp*1-0x1]
    4c23:	31 f6                	xor    esi,esi
    4c25:	e8 4e f4 ff ff       	call   4078 <memset@plt>
    4c2a:	49 8d 3c 1e          	lea    rdi,[r14+rbx*1]
    4c2e:	c6 07 00             	mov    BYTE PTR [rdi],0x0
    4c31:	48 ff c3             	inc    rbx
    4c34:	48 89 9c 24 80 00 00 	mov    QWORD PTR [rsp+0x80],rbx
    4c3b:	00 
    4c3c:	eb 02                	jmp    4c40 <_ZN6binary4main17hf421c7ec894951b1E+0x470>
    4c3e:	31 db                	xor    ebx,ebx
    4c40:	48 8d bc 24 a0 00 00 	lea    rdi,[rsp+0xa0]
    4c47:	00 
    4c48:	48 89 e2             	mov    rdx,rsp
    4c4b:	be 2c 00 00 00       	mov    esi,0x2c
    4c50:	48 89 e9             	mov    rcx,rbp
    4c53:	4d 89 f0             	mov    r8,r14
    4c56:	49 89 d9             	mov    r9,rbx
    4c59:	e8 a2 1d 00 00       	call   6a00 <_ZN6base646encode29encode_with_padding_line_wrap17h200e5269bdac38a9E>
    4c5e:	48 8b 84 24 80 00 00 	mov    rax,QWORD PTR [rsp+0x80]
    4c65:	00 
    4c66:	48 89 84 24 30 01 00 	mov    QWORD PTR [rsp+0x130],rax
    4c6d:	00 
    4c6e:	0f 10 44 24 70       	movups xmm0,XMMWORD PTR [rsp+0x70]
    4c73:	0f 29 84 24 20 01 00 	movaps XMMWORD PTR [rsp+0x120],xmm0
    4c7a:	00 
    4c7b:	48 8b b4 24 20 01 00 	mov    rsi,QWORD PTR [rsp+0x120]
    4c82:	00 
    4c83:	48 8b 9c 24 30 01 00 	mov    rbx,QWORD PTR [rsp+0x130]
    4c8a:	00 
    4c8b:	48 8d 0c 9d 00 00 00 	lea    rcx,[rbx*4+0x0]
    4c92:	00 
    4c93:	48 ba ab aa aa aa aa 	movabs rdx,0xaaaaaaaaaaaaaaab
    4c9a:	aa aa aa 
    4c9d:	48 89 c8             	mov    rax,rcx
    4ca0:	48 f7 e2             	mul    rdx
    4ca3:	48 89 d5             	mov    rbp,rdx
    4ca6:	48 d1 ed             	shr    rbp,1
    4ca9:	48 83 f9 03          	cmp    rcx,0x3
    4cad:	73 08                	jae    4cb7 <_ZN6binary4main17hf421c7ec894951b1E+0x4e7>
    4caf:	41 bd 01 00 00 00    	mov    r13d,0x1
    4cb5:	eb 22                	jmp    4cd9 <_ZN6binary4main17hf421c7ec894951b1E+0x509>
    4cb7:	48 89 e2             	mov    rdx,rsp
    4cba:	49 89 f6             	mov    r14,rsi
    4cbd:	be 01 00 00 00       	mov    esi,0x1
    4cc2:	48 89 ef             	mov    rdi,rbp
    4cc5:	e8 86 15 00 00       	call   6250 <__rust_alloc>
    4cca:	4c 89 f6             	mov    rsi,r14
    4ccd:	49 89 c5             	mov    r13,rax
    4cd0:	4d 85 ed             	test   r13,r13
    4cd3:	0f 84 66 14 00 00    	je     613f <_ZN6binary4main17hf421c7ec894951b1E+0x196f>
    4cd9:	4c 89 6c 24 40       	mov    QWORD PTR [rsp+0x40],r13
    4cde:	48 89 6c 24 48       	mov    QWORD PTR [rsp+0x48],rbp
    4ce3:	48 c7 44 24 50 00 00 	mov    QWORD PTR [rsp+0x50],0x0
    4cea:	00 00 
    4cec:	48 8b 05 2d ee 01 00 	mov    rax,QWORD PTR [rip+0x1ee2d]        # 23b20 <const.1m+0x10>
    4cf3:	48 89 84 24 f0 00 00 	mov    QWORD PTR [rsp+0xf0],rax
    4cfa:	00 
    4cfb:	f3 0f 6f 05 0d ee 01 	movdqu xmm0,XMMWORD PTR [rip+0x1ee0d]        # 23b10 <const.1m>
    4d02:	00 
    4d03:	66 0f 7f 84 24 e0 00 	movdqa XMMWORD PTR [rsp+0xe0],xmm0
    4d0a:	00 00 
    4d0c:	80 bc 24 f2 00 00 00 	cmp    BYTE PTR [rsp+0xf2],0x0
    4d13:	00 
    4d14:	74 22                	je     4d38 <_ZN6binary4main17hf421c7ec894951b1E+0x568>
    4d16:	48 8d 7c 24 70       	lea    rdi,[rsp+0x70]
    4d1b:	48 89 da             	mov    rdx,rbx
    4d1e:	e8 cd 24 00 00       	call   71f0 <_ZN6base646decode23copy_without_whitespace17h86fccf412855df3fE>
    4d23:	48 8b 74 24 70       	mov    rsi,QWORD PTR [rsp+0x70]
    4d28:	48 8b 9c 24 80 00 00 	mov    rbx,QWORD PTR [rsp+0x80]
    4d2f:	00 
    4d30:	b0 01                	mov    al,0x1
    4d32:	89 44 24 6c          	mov    DWORD PTR [rsp+0x6c],eax
    4d36:	eb 08                	jmp    4d40 <_ZN6binary4main17hf421c7ec894951b1E+0x570>
    4d38:	c7 44 24 6c 00 00 00 	mov    DWORD PTR [rsp+0x6c],0x0
    4d3f:	00 
    4d40:	48 89 74 24 38       	mov    QWORD PTR [rsp+0x38],rsi
    4d45:	48 89 f7             	mov    rdi,rsi
    4d48:	48 89 de             	mov    rsi,rbx
    4d4b:	e8 70 24 00 00       	call   71c0 <_ZN6base646decode10num_chunks17h92c8c282a1417865E>
    4d50:	48 89 84 24 d8 00 00 	mov    QWORD PTR [rsp+0xd8],rax
    4d57:	00 
    4d58:	b9 06 00 00 00       	mov    ecx,0x6
    4d5d:	48 8b 84 24 d8 00 00 	mov    rax,QWORD PTR [rsp+0xd8]
    4d64:	00 
    4d65:	48 f7 e1             	mul    rcx
    4d68:	48 89 c5             	mov    rbp,rax
    4d6b:	0f 80 63 13 00 00    	jo     60d4 <_ZN6binary4main17hf421c7ec894951b1E+0x1904>
    4d71:	48 85 ed             	test   rbp,rbp
    4d74:	74 54                	je     4dca <_ZN6binary4main17hf421c7ec894951b1E+0x5fa>
    4d76:	48 8d 7c 24 40       	lea    rdi,[rsp+0x40]
    4d7b:	48 89 ee             	mov    rsi,rbp
    4d7e:	e8 dd f5 ff ff       	call   4360 <_ZN33_$LT$alloc..vec..Vec$LT$T$GT$$GT$7reserve17hff3cdc1123f50b03E>
    4d83:	4c 8b 6c 24 40       	mov    r13,QWORD PTR [rsp+0x40]
    4d88:	48 8b 44 24 50       	mov    rax,QWORD PTR [rsp+0x50]
    4d8d:	49 8d 7c 05 00       	lea    rdi,[r13+rax*1+0x0]
    4d92:	48 83 fd 02          	cmp    rbp,0x2
    4d96:	72 1d                	jb     4db5 <_ZN6binary4main17hf421c7ec894951b1E+0x5e5>
    4d98:	48 8d 44 28 ff       	lea    rax,[rax+rbp*1-0x1]
    4d9d:	48 ff cd             	dec    rbp
    4da0:	31 f6                	xor    esi,esi
    4da2:	48 89 ea             	mov    rdx,rbp
    4da5:	48 89 c5             	mov    rbp,rax
    4da8:	e8 cb f2 ff ff       	call   4078 <memset@plt>
    4dad:	48 89 e8             	mov    rax,rbp
    4db0:	49 8d 7c 05 00       	lea    rdi,[r13+rax*1+0x0]
    4db5:	c6 07 00             	mov    BYTE PTR [rdi],0x0
    4db8:	48 ff c0             	inc    rax
    4dbb:	48 89 84 24 98 00 00 	mov    QWORD PTR [rsp+0x98],rax
    4dc2:	00 
    4dc3:	48 89 44 24 50       	mov    QWORD PTR [rsp+0x50],rax
    4dc8:	eb 0a                	jmp    4dd4 <_ZN6binary4main17hf421c7ec894951b1E+0x604>
    4dca:	31 c0                	xor    eax,eax
    4dcc:	48 89 84 24 98 00 00 	mov    QWORD PTR [rsp+0x98],rax
    4dd3:	00 
    4dd4:	48 8d bc 24 f0 00 00 	lea    rdi,[rsp+0xf0]
    4ddb:	00 
    4ddc:	e8 cf 26 00 00       	call   74b0 <_ZN6base6412CharacterSet12decode_table17h8ce2fe73197bd99fE>
    4de1:	89 d9                	mov    ecx,ebx
    4de3:	80 e1 07             	and    cl,0x7
    4de6:	80 f9 05             	cmp    cl,0x5
    4de9:	77 33                	ja     4e1e <_ZN6binary4main17hf421c7ec894951b1E+0x64e>
    4deb:	bf 01 00 00 00       	mov    edi,0x1
    4df0:	b9 08 00 00 00       	mov    ecx,0x8
    4df5:	89 da                	mov    edx,ebx
    4df7:	83 e2 07             	and    edx,0x7
    4dfa:	48 8d 35 0f eb 01 00 	lea    rsi,[rip+0x1eb0f]        # 23910 <const.1U+0x10>
    4e01:	48 63 14 96          	movsxd rdx,DWORD PTR [rsi+rdx*4]
    4e05:	48 01 f2             	add    rdx,rsi
    4e08:	48 8b 74 24 38       	mov    rsi,QWORD PTR [rsp+0x38]
    4e0d:	4c 8b 8c 24 98 00 00 	mov    r9,QWORD PTR [rsp+0x98]
    4e14:	00 
    4e15:	ff e2                	jmp    rdx
    4e17:	b9 0a 00 00 00       	mov    ecx,0xa
    4e1c:	eb 20                	jmp    4e3e <_ZN6binary4main17hf421c7ec894951b1E+0x66e>
    4e1e:	89 d9                	mov    ecx,ebx
    4e20:	83 e1 07             	and    ecx,0x7
    4e23:	48 8b 74 24 38       	mov    rsi,QWORD PTR [rsp+0x38]
    4e28:	4c 8b 8c 24 98 00 00 	mov    r9,QWORD PTR [rsp+0x98]
    4e2f:	00 
    4e30:	eb 0c                	jmp    4e3e <_ZN6binary4main17hf421c7ec894951b1E+0x66e>
    4e32:	b9 0b 00 00 00       	mov    ecx,0xb
    4e37:	eb 05                	jmp    4e3e <_ZN6binary4main17hf421c7ec894951b1E+0x66e>
    4e39:	b9 0c 00 00 00       	mov    ecx,0xc
    4e3e:	31 ff                	xor    edi,edi
    4e40:	48 89 da             	mov    rdx,rbx
    4e43:	48 29 ca             	sub    rdx,rcx
    4e46:	48 0f 42 d7          	cmovb  rdx,rdi
    4e4a:	49 89 d0             	mov    r8,rdx
    4e4d:	49 83 e8 20          	sub    r8,0x20
    4e51:	4c 89 6c 24 60       	mov    QWORD PTR [rsp+0x60],r13
    4e56:	48 89 9c 24 10 01 00 	mov    QWORD PTR [rsp+0x110],rbx
    4e5d:	00 
    4e5e:	73 12                	jae    4e72 <_ZN6binary4main17hf421c7ec894951b1E+0x6a2>
    4e60:	45 31 ff             	xor    r15d,r15d
    4e63:	48 83 ea 08          	sub    rdx,0x8
    4e67:	0f 83 88 04 00 00    	jae    52f5 <_ZN6binary4main17hf421c7ec894951b1E+0xb25>
    4e6d:	e9 f1 05 00 00       	jmp    5463 <_ZN6binary4main17hf421c7ec894951b1E+0xc93>
    4e72:	48 89 94 24 d0 00 00 	mov    QWORD PTR [rsp+0xd0],rdx
    4e79:	00 
    4e7a:	41 bf 10 00 00 00    	mov    r15d,0x10
    4e80:	31 ff                	xor    edi,edi
    4e82:	66 66 66 66 66 2e 0f 	data16 data16 data16 data16 nop WORD PTR cs:[rax+rax*1+0x0]
    4e89:	1f 84 00 00 00 00 00 
    4e90:	4d 8d 57 10          	lea    r10,[r15+0x10]
    4e94:	49 83 ff f0          	cmp    r15,0xfffffffffffffff0
    4e98:	0f 84 08 0f 00 00    	je     5da6 <_ZN6binary4main17hf421c7ec894951b1E+0x15d6>
    4e9e:	49 39 da             	cmp    r10,rbx
    4ea1:	0f 87 0e 0f 00 00    	ja     5db5 <_ZN6binary4main17hf421c7ec894951b1E+0x15e5>
    4ea7:	48 8d 57 1a          	lea    rdx,[rdi+0x1a]
    4eab:	4c 39 ca             	cmp    rdx,r9
    4eae:	0f 87 0c 0f 00 00    	ja     5dc0 <_ZN6binary4main17hf421c7ec894951b1E+0x15f0>
    4eb4:	42 0f b6 6c 3e f0    	movzx  ebp,BYTE PTR [rsi+r15*1-0x10]
    4eba:	44 0f b6 34 28       	movzx  r14d,BYTE PTR [rax+rbp*1]
    4ebf:	49 81 fe ff 00 00 00 	cmp    r14,0xff
    4ec6:	0f 84 ff 0e 00 00    	je     5dcb <_ZN6binary4main17hf421c7ec894951b1E+0x15fb>
    4ecc:	42 0f b6 6c 3e f1    	movzx  ebp,BYTE PTR [rsi+r15*1-0xf]
    4ed2:	44 0f b6 1c 28       	movzx  r11d,BYTE PTR [rax+rbp*1]
    4ed7:	49 81 fb ff 00 00 00 	cmp    r11,0xff
    4ede:	0f 84 f0 0e 00 00    	je     5dd4 <_ZN6binary4main17hf421c7ec894951b1E+0x1604>
    4ee4:	42 0f b6 6c 3e f2    	movzx  ebp,BYTE PTR [rsi+r15*1-0xe]
    4eea:	44 0f b6 24 28       	movzx  r12d,BYTE PTR [rax+rbp*1]
    4eef:	49 81 fc ff 00 00 00 	cmp    r12,0xff
    4ef6:	0f 84 e1 0e 00 00    	je     5ddd <_ZN6binary4main17hf421c7ec894951b1E+0x160d>
    4efc:	42 0f b6 6c 3e f3    	movzx  ebp,BYTE PTR [rsi+r15*1-0xd]
    4f02:	0f b6 1c 28          	movzx  ebx,BYTE PTR [rax+rbp*1]
    4f06:	48 81 fb ff 00 00 00 	cmp    rbx,0xff
    4f0d:	0f 84 d3 0e 00 00    	je     5de6 <_ZN6binary4main17hf421c7ec894951b1E+0x1616>
    4f13:	42 0f b6 6c 3e f4    	movzx  ebp,BYTE PTR [rsi+r15*1-0xc]
    4f19:	44 0f b6 2c 28       	movzx  r13d,BYTE PTR [rax+rbp*1]
    4f1e:	49 81 fd ff 00 00 00 	cmp    r13,0xff
    4f25:	0f 84 c4 0e 00 00    	je     5def <_ZN6binary4main17hf421c7ec894951b1E+0x161f>
    4f2b:	42 0f b6 6c 3e f5    	movzx  ebp,BYTE PTR [rsi+r15*1-0xb]
    4f31:	0f b6 0c 28          	movzx  ecx,BYTE PTR [rax+rbp*1]
    4f35:	48 81 f9 ff 00 00 00 	cmp    rcx,0xff
    4f3c:	0f 84 b6 0e 00 00    	je     5df8 <_ZN6binary4main17hf421c7ec894951b1E+0x1628>
    4f42:	42 0f b6 6c 3e f6    	movzx  ebp,BYTE PTR [rsi+r15*1-0xa]
    4f48:	0f b6 14 28          	movzx  edx,BYTE PTR [rax+rbp*1]
    4f4c:	48 81 fa ff 00 00 00 	cmp    rdx,0xff
    4f53:	0f 84 a8 0e 00 00    	je     5e01 <_ZN6binary4main17hf421c7ec894951b1E+0x1631>
    4f59:	42 0f b6 6c 3e f7    	movzx  ebp,BYTE PTR [rsi+r15*1-0x9]
    4f5f:	49 89 f1             	mov    r9,rsi
    4f62:	0f b6 34 28          	movzx  esi,BYTE PTR [rax+rbp*1]
    4f66:	48 81 fe ff 00 00 00 	cmp    rsi,0xff
    4f6d:	0f 84 97 0e 00 00    	je     5e0a <_ZN6binary4main17hf421c7ec894951b1E+0x163a>
    4f73:	49 c1 e3 34          	shl    r11,0x34
    4f77:	49 c1 e6 3a          	shl    r14,0x3a
    4f7b:	4d 09 de             	or     r14,r11
    4f7e:	49 c1 e4 2e          	shl    r12,0x2e
    4f82:	48 c1 e3 28          	shl    rbx,0x28
    4f86:	4c 09 e3             	or     rbx,r12
    4f89:	4c 09 f3             	or     rbx,r14
    4f8c:	49 c1 e5 22          	shl    r13,0x22
    4f90:	48 c1 e1 1c          	shl    rcx,0x1c
    4f94:	4c 09 e9             	or     rcx,r13
    4f97:	48 c1 e2 16          	shl    rdx,0x16
    4f9b:	48 09 ca             	or     rdx,rcx
    4f9e:	48 09 da             	or     rdx,rbx
    4fa1:	48 c1 e6 10          	shl    rsi,0x10
    4fa5:	48 09 d6             	or     rsi,rdx
    4fa8:	48 0f ce             	bswap  rsi
    4fab:	48 8b 4c 24 60       	mov    rcx,QWORD PTR [rsp+0x60]
    4fb0:	48 89 34 39          	mov    QWORD PTR [rcx+rdi*1],rsi
    4fb4:	43 0f b6 6c 39 f8    	movzx  ebp,BYTE PTR [r9+r15*1-0x8]
    4fba:	44 0f b6 34 28       	movzx  r14d,BYTE PTR [rax+rbp*1]
    4fbf:	49 81 fe ff 00 00 00 	cmp    r14,0xff
    4fc6:	0f 84 47 0e 00 00    	je     5e13 <_ZN6binary4main17hf421c7ec894951b1E+0x1643>
    4fcc:	43 0f b6 6c 39 f9    	movzx  ebp,BYTE PTR [r9+r15*1-0x7]
    4fd2:	44 0f b6 1c 28       	movzx  r11d,BYTE PTR [rax+rbp*1]
    4fd7:	49 81 fb ff 00 00 00 	cmp    r11,0xff
    4fde:	0f 84 38 0e 00 00    	je     5e1c <_ZN6binary4main17hf421c7ec894951b1E+0x164c>
    4fe4:	43 0f b6 6c 39 fa    	movzx  ebp,BYTE PTR [r9+r15*1-0x6]
    4fea:	44 0f b6 24 28       	movzx  r12d,BYTE PTR [rax+rbp*1]
    4fef:	49 81 fc ff 00 00 00 	cmp    r12,0xff
    4ff6:	0f 84 56 0d 00 00    	je     5d52 <_ZN6binary4main17hf421c7ec894951b1E+0x1582>
    4ffc:	43 0f b6 6c 39 fb    	movzx  ebp,BYTE PTR [r9+r15*1-0x5]
    5002:	0f b6 1c 28          	movzx  ebx,BYTE PTR [rax+rbp*1]
    5006:	48 81 fb ff 00 00 00 	cmp    rbx,0xff
    500d:	0f 84 48 0d 00 00    	je     5d5b <_ZN6binary4main17hf421c7ec894951b1E+0x158b>
    5013:	43 0f b6 6c 39 fc    	movzx  ebp,BYTE PTR [r9+r15*1-0x4]
    5019:	44 0f b6 2c 28       	movzx  r13d,BYTE PTR [rax+rbp*1]
    501e:	49 81 fd ff 00 00 00 	cmp    r13,0xff
    5025:	0f 84 39 0d 00 00    	je     5d64 <_ZN6binary4main17hf421c7ec894951b1E+0x1594>
    502b:	43 0f b6 6c 39 fd    	movzx  ebp,BYTE PTR [r9+r15*1-0x3]
    5031:	0f b6 0c 28          	movzx  ecx,BYTE PTR [rax+rbp*1]
    5035:	48 81 f9 ff 00 00 00 	cmp    rcx,0xff
    503c:	0f 84 2b 0d 00 00    	je     5d6d <_ZN6binary4main17hf421c7ec894951b1E+0x159d>
    5042:	43 0f b6 6c 39 fe    	movzx  ebp,BYTE PTR [r9+r15*1-0x2]
    5048:	0f b6 14 28          	movzx  edx,BYTE PTR [rax+rbp*1]
    504c:	48 81 fa ff 00 00 00 	cmp    rdx,0xff
    5053:	0f 84 1d 0d 00 00    	je     5d76 <_ZN6binary4main17hf421c7ec894951b1E+0x15a6>
    5059:	43 0f b6 6c 39 ff    	movzx  ebp,BYTE PTR [r9+r15*1-0x1]
    505f:	0f b6 34 28          	movzx  esi,BYTE PTR [rax+rbp*1]
    5063:	48 81 fe ff 00 00 00 	cmp    rsi,0xff
    506a:	0f 84 0f 0d 00 00    	je     5d7f <_ZN6binary4main17hf421c7ec894951b1E+0x15af>
    5070:	49 c1 e3 34          	shl    r11,0x34
    5074:	49 c1 e6 3a          	shl    r14,0x3a
    5078:	4d 09 de             	or     r14,r11
    507b:	49 c1 e4 2e          	shl    r12,0x2e
    507f:	48 c1 e3 28          	shl    rbx,0x28
    5083:	4c 09 e3             	or     rbx,r12
    5086:	4c 09 f3             	or     rbx,r14
    5089:	49 c1 e5 22          	shl    r13,0x22
    508d:	48 c1 e1 1c          	shl    rcx,0x1c
    5091:	4c 09 e9             	or     rcx,r13
    5094:	48 c1 e2 16          	shl    rdx,0x16
    5098:	48 09 ca             	or     rdx,rcx
    509b:	48 09 da             	or     rdx,rbx
    509e:	48 c1 e6 10          	shl    rsi,0x10
    50a2:	48 09 d6             	or     rsi,rdx
    50a5:	48 0f ce             	bswap  rsi
    50a8:	48 8b 4c 24 60       	mov    rcx,QWORD PTR [rsp+0x60]
    50ad:	48 89 74 39 06       	mov    QWORD PTR [rcx+rdi*1+0x6],rsi
    50b2:	43 0f b6 2c 39       	movzx  ebp,BYTE PTR [r9+r15*1]
    50b7:	44 0f b6 34 28       	movzx  r14d,BYTE PTR [rax+rbp*1]
    50bc:	49 81 fe ff 00 00 00 	cmp    r14,0xff
    50c3:	0f 84 f0 0e 00 00    	je     5fb9 <_ZN6binary4main17hf421c7ec894951b1E+0x17e9>
    50c9:	43 0f b6 6c 39 01    	movzx  ebp,BYTE PTR [r9+r15*1+0x1]
    50cf:	44 0f b6 1c 28       	movzx  r11d,BYTE PTR [rax+rbp*1]
    50d4:	49 81 fb ff 00 00 00 	cmp    r11,0xff
    50db:	0f 84 44 0d 00 00    	je     5e25 <_ZN6binary4main17hf421c7ec894951b1E+0x1655>
    50e1:	43 0f b6 6c 39 02    	movzx  ebp,BYTE PTR [r9+r15*1+0x2]
    50e7:	44 0f b6 24 28       	movzx  r12d,BYTE PTR [rax+rbp*1]
    50ec:	49 81 fc ff 00 00 00 	cmp    r12,0xff
    50f3:	0f 84 34 0d 00 00    	je     5e2d <_ZN6binary4main17hf421c7ec894951b1E+0x165d>
    50f9:	43 0f b6 6c 39 03    	movzx  ebp,BYTE PTR [r9+r15*1+0x3]
    50ff:	0f b6 1c 28          	movzx  ebx,BYTE PTR [rax+rbp*1]
    5103:	48 81 fb ff 00 00 00 	cmp    rbx,0xff
    510a:	0f 84 26 0d 00 00    	je     5e36 <_ZN6binary4main17hf421c7ec894951b1E+0x1666>
    5110:	43 0f b6 6c 39 04    	movzx  ebp,BYTE PTR [r9+r15*1+0x4]
    5116:	44 0f b6 2c 28       	movzx  r13d,BYTE PTR [rax+rbp*1]
    511b:	49 81 fd ff 00 00 00 	cmp    r13,0xff
    5122:	0f 84 17 0d 00 00    	je     5e3f <_ZN6binary4main17hf421c7ec894951b1E+0x166f>
    5128:	43 0f b6 6c 39 05    	movzx  ebp,BYTE PTR [r9+r15*1+0x5]
    512e:	0f b6 0c 28          	movzx  ecx,BYTE PTR [rax+rbp*1]
    5132:	48 81 f9 ff 00 00 00 	cmp    rcx,0xff
    5139:	0f 84 09 0d 00 00    	je     5e48 <_ZN6binary4main17hf421c7ec894951b1E+0x1678>
    513f:	43 0f b6 6c 39 06    	movzx  ebp,BYTE PTR [r9+r15*1+0x6]
    5145:	0f b6 14 28          	movzx  edx,BYTE PTR [rax+rbp*1]
    5149:	48 81 fa ff 00 00 00 	cmp    rdx,0xff
    5150:	0f 84 fb 0c 00 00    	je     5e51 <_ZN6binary4main17hf421c7ec894951b1E+0x1681>
    5156:	43 0f b6 6c 39 07    	movzx  ebp,BYTE PTR [r9+r15*1+0x7]
    515c:	0f b6 34 28          	movzx  esi,BYTE PTR [rax+rbp*1]
    5160:	48 81 fe ff 00 00 00 	cmp    rsi,0xff
    5167:	0f 84 ed 0c 00 00    	je     5e5a <_ZN6binary4main17hf421c7ec894951b1E+0x168a>
    516d:	49 c1 e3 34          	shl    r11,0x34
    5171:	49 c1 e6 3a          	shl    r14,0x3a
    5175:	4d 09 de             	or     r14,r11
    5178:	49 c1 e4 2e          	shl    r12,0x2e
    517c:	48 c1 e3 28          	shl    rbx,0x28
    5180:	4c 09 e3             	or     rbx,r12
    5183:	4c 09 f3             	or     rbx,r14
    5186:	49 c1 e5 22          	shl    r13,0x22
    518a:	48 c1 e1 1c          	shl    rcx,0x1c
    518e:	4c 09 e9             	or     rcx,r13
    5191:	48 c1 e2 16          	shl    rdx,0x16
    5195:	48 09 ca             	or     rdx,rcx
    5198:	48 09 da             	or     rdx,rbx
    519b:	48 c1 e6 10          	shl    rsi,0x10
    519f:	48 09 d6             	or     rsi,rdx
    51a2:	48 0f ce             	bswap  rsi
    51a5:	48 8b 4c 24 60       	mov    rcx,QWORD PTR [rsp+0x60]
    51aa:	48 89 74 39 0c       	mov    QWORD PTR [rcx+rdi*1+0xc],rsi
    51af:	43 0f b6 6c 39 08    	movzx  ebp,BYTE PTR [r9+r15*1+0x8]
    51b5:	44 0f b6 34 28       	movzx  r14d,BYTE PTR [rax+rbp*1]
    51ba:	49 81 fe ff 00 00 00 	cmp    r14,0xff
    51c1:	4c 89 ce             	mov    rsi,r9
    51c4:	0f 84 99 0c 00 00    	je     5e63 <_ZN6binary4main17hf421c7ec894951b1E+0x1693>
    51ca:	42 0f b6 6c 3e 09    	movzx  ebp,BYTE PTR [rsi+r15*1+0x9]
    51d0:	44 0f b6 1c 28       	movzx  r11d,BYTE PTR [rax+rbp*1]
    51d5:	49 81 fb ff 00 00 00 	cmp    r11,0xff
    51dc:	4c 8b 8c 24 98 00 00 	mov    r9,QWORD PTR [rsp+0x98]
    51e3:	00 
    51e4:	0f 84 82 0c 00 00    	je     5e6c <_ZN6binary4main17hf421c7ec894951b1E+0x169c>
    51ea:	42 0f b6 6c 3e 0a    	movzx  ebp,BYTE PTR [rsi+r15*1+0xa]
    51f0:	44 0f b6 24 28       	movzx  r12d,BYTE PTR [rax+rbp*1]
    51f5:	49 81 fc ff 00 00 00 	cmp    r12,0xff
    51fc:	0f 84 73 0c 00 00    	je     5e75 <_ZN6binary4main17hf421c7ec894951b1E+0x16a5>
    5202:	42 0f b6 6c 3e 0b    	movzx  ebp,BYTE PTR [rsi+r15*1+0xb]
    5208:	0f b6 1c 28          	movzx  ebx,BYTE PTR [rax+rbp*1]
    520c:	48 81 fb ff 00 00 00 	cmp    rbx,0xff
    5213:	0f 84 65 0c 00 00    	je     5e7e <_ZN6binary4main17hf421c7ec894951b1E+0x16ae>
    5219:	42 0f b6 6c 3e 0c    	movzx  ebp,BYTE PTR [rsi+r15*1+0xc]
    521f:	44 0f b6 2c 28       	movzx  r13d,BYTE PTR [rax+rbp*1]
    5224:	49 81 fd ff 00 00 00 	cmp    r13,0xff
    522b:	0f 84 56 0c 00 00    	je     5e87 <_ZN6binary4main17hf421c7ec894951b1E+0x16b7>
    5231:	42 0f b6 6c 3e 0d    	movzx  ebp,BYTE PTR [rsi+r15*1+0xd]
    5237:	0f b6 0c 28          	movzx  ecx,BYTE PTR [rax+rbp*1]
    523b:	48 81 f9 ff 00 00 00 	cmp    rcx,0xff
    5242:	0f 84 48 0c 00 00    	je     5e90 <_ZN6binary4main17hf421c7ec894951b1E+0x16c0>
    5248:	42 0f b6 6c 3e 0e    	movzx  ebp,BYTE PTR [rsi+r15*1+0xe]
    524e:	0f b6 14 28          	movzx  edx,BYTE PTR [rax+rbp*1]
    5252:	48 81 fa ff 00 00 00 	cmp    rdx,0xff
    5259:	0f 84 3a 0c 00 00    	je     5e99 <_ZN6binary4main17hf421c7ec894951b1E+0x16c9>
    525f:	42 0f b6 6c 3e 0f    	movzx  ebp,BYTE PTR [rsi+r15*1+0xf]
    5265:	0f b6 34 28          	movzx  esi,BYTE PTR [rax+rbp*1]
    5269:	48 81 fe ff 00 00 00 	cmp    rsi,0xff
    5270:	0f 84 2c 0c 00 00    	je     5ea2 <_ZN6binary4main17hf421c7ec894951b1E+0x16d2>
    5276:	49 c1 e3 34          	shl    r11,0x34
    527a:	49 c1 e6 3a          	shl    r14,0x3a
    527e:	4d 09 de             	or     r14,r11
    5281:	49 c1 e4 2e          	shl    r12,0x2e
    5285:	48 c1 e3 28          	shl    rbx,0x28
    5289:	4c 09 e3             	or     rbx,r12
    528c:	4c 09 f3             	or     rbx,r14
    528f:	49 c1 e5 22          	shl    r13,0x22
    5293:	48 c1 e1 1c          	shl    rcx,0x1c
    5297:	4c 09 e9             	or     rcx,r13
    529a:	48 c1 e2 16          	shl    rdx,0x16
    529e:	48 09 ca             	or     rdx,rcx
    52a1:	48 09 da             	or     rdx,rbx
    52a4:	48 c1 e6 10          	shl    rsi,0x10
    52a8:	48 09 d6             	or     rsi,rdx
    52ab:	48 0f ce             	bswap  rsi
    52ae:	4c 8b 6c 24 60       	mov    r13,QWORD PTR [rsp+0x60]
    52b3:	49 89 74 3d 12       	mov    QWORD PTR [r13+rdi*1+0x12],rsi
    52b8:	48 83 c7 18          	add    rdi,0x18
    52bc:	48 83 84 24 d8 00 00 	add    QWORD PTR [rsp+0xd8],0xfffffffffffffffc
    52c3:	00 fc 
    52c5:	49 83 c7 20          	add    r15,0x20
    52c9:	4d 39 c2             	cmp    r10,r8
    52cc:	48 8b 74 24 38       	mov    rsi,QWORD PTR [rsp+0x38]
    52d1:	48 8b 9c 24 10 01 00 	mov    rbx,QWORD PTR [rsp+0x110]
    52d8:	00 
    52d9:	0f 86 b1 fb ff ff    	jbe    4e90 <_ZN6binary4main17hf421c7ec894951b1E+0x6c0>
    52df:	49 83 c7 f0          	add    r15,0xfffffffffffffff0
    52e3:	48 8b 94 24 d0 00 00 	mov    rdx,QWORD PTR [rsp+0xd0]
    52ea:	00 
    52eb:	48 83 ea 08          	sub    rdx,0x8
    52ef:	0f 82 6e 01 00 00    	jb     5463 <_ZN6binary4main17hf421c7ec894951b1E+0xc93>
    52f5:	49 39 d7             	cmp    r15,rdx
    52f8:	0f 83 65 01 00 00    	jae    5463 <_ZN6binary4main17hf421c7ec894951b1E+0xc93>
    52fe:	66 90                	xchg   ax,ax
    5300:	49 83 ff f8          	cmp    r15,0xfffffffffffffff8
    5304:	0f 84 52 0c 00 00    	je     5f5c <_ZN6binary4main17hf421c7ec894951b1E+0x178c>
    530a:	49 8d 6f 08          	lea    rbp,[r15+0x8]
    530e:	48 39 dd             	cmp    rbp,rbx
    5311:	0f 87 58 0c 00 00    	ja     5f6f <_ZN6binary4main17hf421c7ec894951b1E+0x179f>
    5317:	48 8d 4f 08          	lea    rcx,[rdi+0x8]
    531b:	48 83 ff f8          	cmp    rdi,0xfffffffffffffff8
    531f:	0f 83 59 0c 00 00    	jae    5f7e <_ZN6binary4main17hf421c7ec894951b1E+0x17ae>
    5325:	48 89 ac 24 d0 00 00 	mov    QWORD PTR [rsp+0xd0],rbp
    532c:	00 
    532d:	4c 39 c9             	cmp    rcx,r9
    5330:	0f 87 50 0c 00 00    	ja     5f86 <_ZN6binary4main17hf421c7ec894951b1E+0x17b6>
    5336:	49 89 d0             	mov    r8,rdx
    5339:	42 0f b6 2c 3e       	movzx  ebp,BYTE PTR [rsi+r15*1]
    533e:	44 0f b6 34 28       	movzx  r14d,BYTE PTR [rax+rbp*1]
    5343:	49 81 fe ff 00 00 00 	cmp    r14,0xff
    534a:	0f 84 69 0c 00 00    	je     5fb9 <_ZN6binary4main17hf421c7ec894951b1E+0x17e9>
    5350:	42 0f b6 6c 3e 01    	movzx  ebp,BYTE PTR [rsi+r15*1+0x1]
    5356:	44 0f b6 14 28       	movzx  r10d,BYTE PTR [rax+rbp*1]
    535b:	49 81 fa ff 00 00 00 	cmp    r10,0xff
    5362:	0f 84 29 0c 00 00    	je     5f91 <_ZN6binary4main17hf421c7ec894951b1E+0x17c1>
    5368:	42 0f b6 6c 3e 02    	movzx  ebp,BYTE PTR [rsi+r15*1+0x2]
    536e:	44 0f b6 1c 28       	movzx  r11d,BYTE PTR [rax+rbp*1]
    5373:	49 81 fb ff 00 00 00 	cmp    r11,0xff
    537a:	0f 84 17 0c 00 00    	je     5f97 <_ZN6binary4main17hf421c7ec894951b1E+0x17c7>
    5380:	42 0f b6 6c 3e 03    	movzx  ebp,BYTE PTR [rsi+r15*1+0x3]
    5386:	0f b6 14 28          	movzx  edx,BYTE PTR [rax+rbp*1]
    538a:	48 81 fa ff 00 00 00 	cmp    rdx,0xff
    5391:	0f 84 06 0c 00 00    	je     5f9d <_ZN6binary4main17hf421c7ec894951b1E+0x17cd>
    5397:	42 0f b6 6c 3e 04    	movzx  ebp,BYTE PTR [rsi+r15*1+0x4]
    539d:	44 0f b6 24 28       	movzx  r12d,BYTE PTR [rax+rbp*1]
    53a2:	49 81 fc ff 00 00 00 	cmp    r12,0xff
    53a9:	0f 84 f4 0b 00 00    	je     5fa3 <_ZN6binary4main17hf421c7ec894951b1E+0x17d3>
    53af:	42 0f b6 6c 3e 05    	movzx  ebp,BYTE PTR [rsi+r15*1+0x5]
    53b5:	0f b6 1c 28          	movzx  ebx,BYTE PTR [rax+rbp*1]
    53b9:	48 81 fb ff 00 00 00 	cmp    rbx,0xff
    53c0:	0f 84 e3 0b 00 00    	je     5fa9 <_ZN6binary4main17hf421c7ec894951b1E+0x17d9>
    53c6:	42 0f b6 6c 3e 06    	movzx  ebp,BYTE PTR [rsi+r15*1+0x6]
    53cc:	0f b6 0c 28          	movzx  ecx,BYTE PTR [rax+rbp*1]
    53d0:	48 81 f9 ff 00 00 00 	cmp    rcx,0xff
    53d7:	0f 84 d2 0b 00 00    	je     5faf <_ZN6binary4main17hf421c7ec894951b1E+0x17df>
    53dd:	42 0f b6 6c 3e 07    	movzx  ebp,BYTE PTR [rsi+r15*1+0x7]
    53e3:	0f b6 34 28          	movzx  esi,BYTE PTR [rax+rbp*1]
    53e7:	48 81 fe ff 00 00 00 	cmp    rsi,0xff
    53ee:	0f 84 c1 0b 00 00    	je     5fb5 <_ZN6binary4main17hf421c7ec894951b1E+0x17e5>
    53f4:	49 c1 e2 34          	shl    r10,0x34
    53f8:	49 c1 e6 3a          	shl    r14,0x3a
    53fc:	4d 09 d6             	or     r14,r10
    53ff:	49 c1 e3 2e          	shl    r11,0x2e
    5403:	48 c1 e2 28          	shl    rdx,0x28
    5407:	4c 09 da             	or     rdx,r11
    540a:	4c 09 f2             	or     rdx,r14
    540d:	49 c1 e4 22          	shl    r12,0x22
    5411:	48 c1 e3 1c          	shl    rbx,0x1c
    5415:	4c 09 e3             	or     rbx,r12
    5418:	48 c1 e1 16          	shl    rcx,0x16
    541c:	48 09 d9             	or     rcx,rbx
    541f:	48 09 d1             	or     rcx,rdx
    5422:	48 c1 e6 10          	shl    rsi,0x10
    5426:	48 09 ce             	or     rsi,rcx
    5429:	48 0f ce             	bswap  rsi
    542c:	49 89 74 3d 00       	mov    QWORD PTR [r13+rdi*1+0x0],rsi
    5431:	48 83 c7 06          	add    rdi,0x6
    5435:	48 ff 8c 24 d8 00 00 	dec    QWORD PTR [rsp+0xd8]
    543c:	00 
    543d:	4c 89 c2             	mov    rdx,r8
    5440:	4c 8b 84 24 d0 00 00 	mov    r8,QWORD PTR [rsp+0xd0]
    5447:	00 
    5448:	49 39 d0             	cmp    r8,rdx
    544b:	4d 89 c7             	mov    r15,r8
    544e:	48 8b 74 24 38       	mov    rsi,QWORD PTR [rsp+0x38]
    5453:	48 8b 9c 24 10 01 00 	mov    rbx,QWORD PTR [rsp+0x110]
    545a:	00 
    545b:	0f 82 9f fe ff ff    	jb     5300 <_ZN6binary4main17hf421c7ec894951b1E+0xb30>
    5461:	eb 03                	jmp    5466 <_ZN6binary4main17hf421c7ec894951b1E+0xc96>
    5463:	4d 89 f8             	mov    r8,r15
    5466:	48 83 bc 24 d8 00 00 	cmp    QWORD PTR [rsp+0xd8],0x2
    546d:	00 02 
    546f:	0f 82 13 02 00 00    	jb     5688 <_ZN6binary4main17hf421c7ec894951b1E+0xeb8>
    5475:	48 89 da             	mov    rdx,rbx
    5478:	4c 29 c2             	sub    rdx,r8
    547b:	49 83 c0 07          	add    r8,0x7
    547f:	48 89 d9             	mov    rcx,rbx
    5482:	48 f7 d9             	neg    rcx
    5485:	48 89 8c 24 d0 00 00 	mov    QWORD PTR [rsp+0xd0],rcx
    548c:	00 
    548d:	41 ba 01 00 00 00    	mov    r10d,0x1
    5493:	4d 89 c7             	mov    r15,r8
    5496:	66 2e 0f 1f 84 00 00 	nop    WORD PTR cs:[rax+rax*1+0x0]
    549d:	00 00 00 
    54a0:	49 8d 4f f9          	lea    rcx,[r15-0x7]
    54a4:	48 39 cb             	cmp    rbx,rcx
    54a7:	0f 82 fe 09 00 00    	jb     5eab <_ZN6binary4main17hf421c7ec894951b1E+0x16db>
    54ad:	48 8d 77 06          	lea    rsi,[rdi+0x6]
    54b1:	48 83 ff fa          	cmp    rdi,0xfffffffffffffffa
    54b5:	0f 83 ff 09 00 00    	jae    5eba <_ZN6binary4main17hf421c7ec894951b1E+0x16ea>
    54bb:	4c 39 ce             	cmp    rsi,r9
    54be:	0f 87 fb 09 00 00    	ja     5ebf <_ZN6binary4main17hf421c7ec894951b1E+0x16ef>
    54c4:	48 8b ac 24 d0 00 00 	mov    rbp,QWORD PTR [rsp+0xd0]
    54cb:	00 
    54cc:	4a 8d 6c 3d 00       	lea    rbp,[rbp+r15*1+0x0]
    54d1:	48 83 fd 07          	cmp    rbp,0x7
    54d5:	0f 84 f0 09 00 00    	je     5ecb <_ZN6binary4main17hf421c7ec894951b1E+0x16fb>
    54db:	48 8b 6c 24 38       	mov    rbp,QWORD PTR [rsp+0x38]
    54e0:	42 0f b6 6c 3d f9    	movzx  ebp,BYTE PTR [rbp+r15*1-0x7]
    54e6:	44 0f b6 04 28       	movzx  r8d,BYTE PTR [rax+rbp*1]
    54eb:	49 81 f8 ff 00 00 00 	cmp    r8,0xff
    54f2:	0f 84 e3 09 00 00    	je     5edb <_ZN6binary4main17hf421c7ec894951b1E+0x170b>
    54f8:	48 83 fa 02          	cmp    rdx,0x2
    54fc:	0f 82 e3 09 00 00    	jb     5ee5 <_ZN6binary4main17hf421c7ec894951b1E+0x1715>
    5502:	48 8b 4c 24 38       	mov    rcx,QWORD PTR [rsp+0x38]
    5507:	42 0f b6 6c 39 fa    	movzx  ebp,BYTE PTR [rcx+r15*1-0x6]
    550d:	44 0f b6 1c 28       	movzx  r11d,BYTE PTR [rax+rbp*1]
    5512:	49 81 fb ff 00 00 00 	cmp    r11,0xff
    5519:	0f 84 33 08 00 00    	je     5d52 <_ZN6binary4main17hf421c7ec894951b1E+0x1582>
    551f:	48 83 fa 03          	cmp    rdx,0x3
    5523:	0f 82 cd 09 00 00    	jb     5ef6 <_ZN6binary4main17hf421c7ec894951b1E+0x1726>
    5529:	48 8b 4c 24 38       	mov    rcx,QWORD PTR [rsp+0x38]
    552e:	42 0f b6 6c 39 fb    	movzx  ebp,BYTE PTR [rcx+r15*1-0x5]
    5534:	0f b6 1c 28          	movzx  ebx,BYTE PTR [rax+rbp*1]
    5538:	48 81 fb ff 00 00 00 	cmp    rbx,0xff
    553f:	0f 84 16 08 00 00    	je     5d5b <_ZN6binary4main17hf421c7ec894951b1E+0x158b>
    5545:	48 83 fa 04          	cmp    rdx,0x4
    5549:	0f 82 b8 09 00 00    	jb     5f07 <_ZN6binary4main17hf421c7ec894951b1E+0x1737>
    554f:	48 8b 4c 24 38       	mov    rcx,QWORD PTR [rsp+0x38]
    5554:	42 0f b6 6c 39 fc    	movzx  ebp,BYTE PTR [rcx+r15*1-0x4]
    555a:	0f b6 0c 28          	movzx  ecx,BYTE PTR [rax+rbp*1]
    555e:	48 81 f9 ff 00 00 00 	cmp    rcx,0xff
    5565:	0f 84 f9 07 00 00    	je     5d64 <_ZN6binary4main17hf421c7ec894951b1E+0x1594>
    556b:	48 83 fa 05          	cmp    rdx,0x5
    556f:	0f 82 a3 09 00 00    	jb     5f18 <_ZN6binary4main17hf421c7ec894951b1E+0x1748>
    5575:	48 8b 6c 24 38       	mov    rbp,QWORD PTR [rsp+0x38]
    557a:	42 0f b6 6c 3d fd    	movzx  ebp,BYTE PTR [rbp+r15*1-0x3]
    5580:	44 0f b6 24 28       	movzx  r12d,BYTE PTR [rax+rbp*1]
    5585:	49 81 fc ff 00 00 00 	cmp    r12,0xff
    558c:	0f 84 db 07 00 00    	je     5d6d <_ZN6binary4main17hf421c7ec894951b1E+0x159d>
    5592:	48 83 fa 06          	cmp    rdx,0x6
    5596:	0f 82 8d 09 00 00    	jb     5f29 <_ZN6binary4main17hf421c7ec894951b1E+0x1759>
    559c:	48 8b 6c 24 38       	mov    rbp,QWORD PTR [rsp+0x38]
    55a1:	42 0f b6 6c 3d fe    	movzx  ebp,BYTE PTR [rbp+r15*1-0x2]
    55a7:	44 0f b6 0c 28       	movzx  r9d,BYTE PTR [rax+rbp*1]
    55ac:	49 81 f9 ff 00 00 00 	cmp    r9,0xff
    55b3:	0f 84 bd 07 00 00    	je     5d76 <_ZN6binary4main17hf421c7ec894951b1E+0x15a6>
    55b9:	48 83 fa 07          	cmp    rdx,0x7
    55bd:	0f 82 77 09 00 00    	jb     5f3a <_ZN6binary4main17hf421c7ec894951b1E+0x176a>
    55c3:	48 8b 6c 24 38       	mov    rbp,QWORD PTR [rsp+0x38]
    55c8:	42 0f b6 6c 3d ff    	movzx  ebp,BYTE PTR [rbp+r15*1-0x1]
    55ce:	44 0f b6 2c 28       	movzx  r13d,BYTE PTR [rax+rbp*1]
    55d3:	49 81 fd ff 00 00 00 	cmp    r13,0xff
    55da:	0f 84 9f 07 00 00    	je     5d7f <_ZN6binary4main17hf421c7ec894951b1E+0x15af>
    55e0:	48 83 fa 08          	cmp    rdx,0x8
    55e4:	0f 82 61 09 00 00    	jb     5f4b <_ZN6binary4main17hf421c7ec894951b1E+0x177b>
    55ea:	48 8b 6c 24 38       	mov    rbp,QWORD PTR [rsp+0x38]
    55ef:	42 0f b6 6c 3d 00    	movzx  ebp,BYTE PTR [rbp+r15*1+0x0]
    55f5:	44 0f b6 34 28       	movzx  r14d,BYTE PTR [rax+rbp*1]
    55fa:	49 81 fe ff 00 00 00 	cmp    r14,0xff
    5601:	0f 84 b2 09 00 00    	je     5fb9 <_ZN6binary4main17hf421c7ec894951b1E+0x17e9>
    5607:	49 ff c2             	inc    r10
    560a:	49 c1 e0 3a          	shl    r8,0x3a
    560e:	49 c1 e3 34          	shl    r11,0x34
    5612:	4d 09 c3             	or     r11,r8
    5615:	48 c1 e3 2e          	shl    rbx,0x2e
    5619:	4c 09 db             	or     rbx,r11
    561c:	48 c1 e1 28          	shl    rcx,0x28
    5620:	48 09 d9             	or     rcx,rbx
    5623:	49 c1 e4 22          	shl    r12,0x22
    5627:	49 09 cc             	or     r12,rcx
    562a:	49 c1 e1 1c          	shl    r9,0x1c
    562e:	4d 09 e1             	or     r9,r12
    5631:	49 c1 e5 16          	shl    r13,0x16
    5635:	4d 09 cd             	or     r13,r9
    5638:	49 c1 e6 10          	shl    r14,0x10
    563c:	4d 09 ee             	or     r14,r13
    563f:	49 0f ce             	bswap  r14
    5642:	4c 8b 6c 24 60       	mov    r13,QWORD PTR [rsp+0x60]
    5647:	45 89 74 3d 00       	mov    DWORD PTR [r13+rdi*1+0x0],r14d
    564c:	49 c1 ee 20          	shr    r14,0x20
    5650:	66 45 89 74 3d 04    	mov    WORD PTR [r13+rdi*1+0x4],r14w
    5656:	49 83 c7 08          	add    r15,0x8
    565a:	48 83 c2 f8          	add    rdx,0xfffffffffffffff8
    565e:	4c 3b 94 24 d8 00 00 	cmp    r10,QWORD PTR [rsp+0xd8]
    5665:	00 
    5666:	48 89 f7             	mov    rdi,rsi
    5669:	4c 8b 8c 24 98 00 00 	mov    r9,QWORD PTR [rsp+0x98]
    5670:	00 
    5671:	48 8b 9c 24 10 01 00 	mov    rbx,QWORD PTR [rsp+0x110]
    5678:	00 
    5679:	0f 82 21 fe ff ff    	jb     54a0 <_ZN6binary4main17hf421c7ec894951b1E+0xcd0>
    567f:	49 83 c7 f9          	add    r15,0xfffffffffffffff9
    5683:	4d 89 f8             	mov    r8,r15
    5686:	eb 03                	jmp    568b <_ZN6binary4main17hf421c7ec894951b1E+0xebb>
    5688:	48 89 fe             	mov    rsi,rdi
    568b:	49 89 d9             	mov    r9,rbx
    568e:	4d 29 c1             	sub    r9,r8
    5691:	0f 82 4e 0a 00 00    	jb     60e5 <_ZN6binary4main17hf421c7ec894951b1E+0x1915>
    5697:	4c 39 c3             	cmp    rbx,r8
    569a:	0f 84 c1 00 00 00    	je     5761 <_ZN6binary4main17hf421c7ec894951b1E+0xf91>
    56a0:	4c 8b 6c 24 38       	mov    r13,QWORD PTR [rsp+0x38]
    56a5:	4d 01 c5             	add    r13,r8
    56a8:	4d 01 e9             	add    r9,r13
    56ab:	49 f7 d9             	neg    r9
    56ae:	31 db                	xor    ebx,ebx
    56b0:	31 d2                	xor    edx,edx
    56b2:	45 31 d2             	xor    r10d,r10d
    56b5:	45 31 db             	xor    r11d,r11d
    56b8:	45 31 e4             	xor    r12d,r12d
    56bb:	89 d7                	mov    edi,edx
    56bd:	4f 8d 74 0d 00       	lea    r14,[r13+r9*1+0x0]
    56c2:	31 c9                	xor    ecx,ecx
    56c4:	66 66 66 2e 0f 1f 84 	data16 data16 nop WORD PTR cs:[rax+rax*1+0x0]
    56cb:	00 00 00 00 00 
    56d0:	48 8d 14 0f          	lea    rdx,[rdi+rcx*1]
    56d4:	41 0f b6 6c 0d 00    	movzx  ebp,BYTE PTR [r13+rcx*1+0x0]
    56da:	48 83 fd 3d          	cmp    rbp,0x3d
    56de:	75 30                	jne    5710 <_ZN6binary4main17hf421c7ec894951b1E+0xf40>
    56e0:	4d 8d 3c 0c          	lea    r15,[r12+rcx*1]
    56e4:	44 89 fd             	mov    ebp,r15d
    56e7:	83 e5 02             	and    ebp,0x2
    56ea:	48 83 fd 01          	cmp    rbp,0x1
    56ee:	0f 86 93 06 00 00    	jbe    5d87 <_ZN6binary4main17hf421c7ec894951b1E+0x15b7>
    56f4:	85 d2                	test   edx,edx
    56f6:	49 0f 44 df          	cmove  rbx,r15
    56fa:	48 ff c1             	inc    rcx
    56fd:	4c 89 f2             	mov    rdx,r14
    5700:	48 01 ca             	add    rdx,rcx
    5703:	75 cb                	jne    56d0 <_ZN6binary4main17hf421c7ec894951b1E+0xf00>
    5705:	eb 4a                	jmp    5751 <_ZN6binary4main17hf421c7ec894951b1E+0xf81>
    5707:	66 0f 1f 84 00 00 00 	nop    WORD PTR [rax+rax*1+0x0]
    570e:	00 00 
    5710:	85 d2                	test   edx,edx
    5712:	0f 8f 07 0a 00 00    	jg     611f <_ZN6binary4main17hf421c7ec894951b1E+0x194f>
    5718:	0f b6 3c 28          	movzx  edi,BYTE PTR [rax+rbp*1]
    571c:	48 81 ff ff 00 00 00 	cmp    rdi,0xff
    5723:	0f 84 06 0a 00 00    	je     612f <_ZN6binary4main17hf421c7ec894951b1E+0x195f>
    5729:	4d 8d 64 0c 01       	lea    r12,[r12+rcx*1+0x1]
    572e:	4d 8d 6c 0d 01       	lea    r13,[r13+rcx*1+0x1]
    5733:	4a 8d 6c 31 01       	lea    rbp,[rcx+r14*1+0x1]
    5738:	41 ff c2             	inc    r10d
    573b:	41 6b ca fa          	imul   ecx,r10d,0xfffffffa
    573f:	80 e1 3e             	and    cl,0x3e
    5742:	48 d3 e7             	shl    rdi,cl
    5745:	49 09 fb             	or     r11,rdi
    5748:	48 85 ed             	test   rbp,rbp
    574b:	0f 85 6a ff ff ff    	jne    56bb <_ZN6binary4main17hf421c7ec894951b1E+0xeeb>
    5751:	41 83 fa 09          	cmp    r10d,0x9
    5755:	4c 8b 6c 24 60       	mov    r13,QWORD PTR [rsp+0x60]
    575a:	72 0b                	jb     5767 <_ZN6binary4main17hf421c7ec894951b1E+0xf97>
    575c:	e9 b5 08 00 00       	jmp    6016 <_ZN6binary4main17hf421c7ec894951b1E+0x1846>
    5761:	45 31 d2             	xor    r10d,r10d
    5764:	45 31 db             	xor    r11d,r11d
    5767:	b8 dd 01 00 00       	mov    eax,0x1dd
    576c:	44 0f a3 d0          	bt     eax,r10d
    5770:	0f 83 a0 08 00 00    	jae    6016 <_ZN6binary4main17hf421c7ec894951b1E+0x1846>
    5776:	b8 dc 01 00 00       	mov    eax,0x1dc
    577b:	4c 0f a3 d0          	bt     rax,r10
    577f:	48 8b 94 24 98 00 00 	mov    rdx,QWORD PTR [rsp+0x98]
    5786:	00 
    5787:	73 3d                	jae    57c6 <_ZN6binary4main17hf421c7ec894951b1E+0xff6>
    5789:	49 63 c2             	movsxd rax,r10d
    578c:	48 8d 0d ad e6 01 00 	lea    rcx,[rip+0x1e6ad]        # 23e40 <str.1R+0xe>
    5793:	8b 04 81             	mov    eax,DWORD PTR [rcx+rax*4]
    5796:	31 db                	xor    ebx,ebx
    5798:	bf 38 00 00 00       	mov    edi,0x38
    579d:	0f 1f 00             	nop    DWORD PTR [rax]
    57a0:	48 39 d6             	cmp    rsi,rdx
    57a3:	0f 83 f1 05 00 00    	jae    5d9a <_ZN6binary4main17hf421c7ec894951b1E+0x15ca>
    57a9:	89 f9                	mov    ecx,edi
    57ab:	80 e1 38             	and    cl,0x38
    57ae:	4c 89 dd             	mov    rbp,r11
    57b1:	48 d3 ed             	shr    rbp,cl
    57b4:	41 88 6c 35 00       	mov    BYTE PTR [r13+rsi*1+0x0],bpl
    57b9:	48 ff c6             	inc    rsi
    57bc:	83 c3 08             	add    ebx,0x8
    57bf:	83 c7 f8             	add    edi,0xfffffff8
    57c2:	39 c3                	cmp    ebx,eax
    57c4:	7c da                	jl     57a0 <_ZN6binary4main17hf421c7ec894951b1E+0xfd0>
    57c6:	48 8b 6c 24 50       	mov    rbp,QWORD PTR [rsp+0x50]
    57cb:	48 39 f5             	cmp    rbp,rsi
    57ce:	76 08                	jbe    57d8 <_ZN6binary4main17hf421c7ec894951b1E+0x1008>
    57d0:	48 89 74 24 50       	mov    QWORD PTR [rsp+0x50],rsi
    57d5:	48 89 f5             	mov    rbp,rsi
    57d8:	80 7c 24 6c 00       	cmp    BYTE PTR [rsp+0x6c],0x0
    57dd:	74 19                	je     57f8 <_ZN6binary4main17hf421c7ec894951b1E+0x1028>
    57df:	48 8b 74 24 78       	mov    rsi,QWORD PTR [rsp+0x78]
    57e4:	48 85 f6             	test   rsi,rsi
    57e7:	74 0f                	je     57f8 <_ZN6binary4main17hf421c7ec894951b1E+0x1028>
    57e9:	ba 01 00 00 00       	mov    edx,0x1
    57ee:	48 8b 7c 24 38       	mov    rdi,QWORD PTR [rsp+0x38]
    57f3:	e8 78 0a 00 00       	call   6270 <__rust_dealloc>
    57f8:	66 0f 6f 44 24 40    	movdqa xmm0,XMMWORD PTR [rsp+0x40]
    57fe:	48 89 6c 24 50       	mov    QWORD PTR [rsp+0x50],rbp
    5803:	66 48 0f 7e c6       	movq   rsi,xmm0
    5808:	48 8d 5c 24 70       	lea    rbx,[rsp+0x70]
    580d:	48 89 df             	mov    rdi,rbx
    5810:	48 89 ea             	mov    rdx,rbp
    5813:	e8 38 9b 01 00       	call   1f350 <_ZN4core3str9from_utf817hff586f7dcc299f58E>
    5818:	48 83 7c 24 70 00    	cmp    QWORD PTR [rsp+0x70],0x0
    581e:	48 8d 54 24 40       	lea    rdx,[rsp+0x40]
    5823:	74 54                	je     5879 <_ZN6binary4main17hf421c7ec894951b1E+0x10a9>
    5825:	0f 10 44 24 78       	movups xmm0,XMMWORD PTR [rsp+0x78]
    582a:	0f 29 84 24 40 01 00 	movaps XMMWORD PTR [rsp+0x140],xmm0
    5831:	00 
    5832:	48 8b 44 24 50       	mov    rax,QWORD PTR [rsp+0x50]
    5837:	48 89 44 24 10       	mov    QWORD PTR [rsp+0x10],rax
    583c:	0f 28 44 24 40       	movaps xmm0,XMMWORD PTR [rsp+0x40]
    5841:	0f 29 04 24          	movaps XMMWORD PTR [rsp],xmm0
    5845:	0f 10 44 24 78       	movups xmm0,XMMWORD PTR [rsp+0x78]
    584a:	0f 11 44 24 18       	movups XMMWORD PTR [rsp+0x18],xmm0
    584f:	48 8b 44 24 20       	mov    rax,QWORD PTR [rsp+0x20]
    5854:	48 89 84 24 00 01 00 	mov    QWORD PTR [rsp+0x100],rax
    585b:	00 
    585c:	0f 28 04 24          	movaps xmm0,XMMWORD PTR [rsp]
    5860:	0f 28 4c 24 10       	movaps xmm1,XMMWORD PTR [rsp+0x10]
    5865:	0f 29 8c 24 f0 00 00 	movaps XMMWORD PTR [rsp+0xf0],xmm1
    586c:	00 
    586d:	0f 29 84 24 e0 00 00 	movaps XMMWORD PTR [rsp+0xe0],xmm0
    5874:	00 
    5875:	31 c9                	xor    ecx,ecx
    5877:	eb 1c                	jmp    5895 <_ZN6binary4main17hf421c7ec894951b1E+0x10c5>
    5879:	48 8b 44 24 50       	mov    rax,QWORD PTR [rsp+0x50]
    587e:	48 89 84 24 f0 00 00 	mov    QWORD PTR [rsp+0xf0],rax
    5885:	00 
    5886:	0f 28 44 24 40       	movaps xmm0,XMMWORD PTR [rsp+0x40]
    588b:	0f 29 84 24 e0 00 00 	movaps XMMWORD PTR [rsp+0xe0],xmm0
    5892:	00 
    5893:	b1 01                	mov    cl,0x1
    5895:	48 8b 84 24 00 01 00 	mov    rax,QWORD PTR [rsp+0x100]
    589c:	00 
    589d:	48 89 84 24 90 00 00 	mov    QWORD PTR [rsp+0x90],rax
    58a4:	00 
    58a5:	0f 28 84 24 e0 00 00 	movaps xmm0,XMMWORD PTR [rsp+0xe0]
    58ac:	00 
    58ad:	66 0f 6f 8c 24 f0 00 	movdqa xmm1,XMMWORD PTR [rsp+0xf0]
    58b4:	00 00 
    58b6:	66 0f 7f 8c 24 80 00 	movdqa XMMWORD PTR [rsp+0x80],xmm1
    58bd:	00 00 
    58bf:	0f 29 44 24 70       	movaps XMMWORD PTR [rsp+0x70],xmm0
    58c4:	84 c9                	test   cl,cl
    58c6:	0f 84 24 08 00 00    	je     60f0 <_ZN6binary4main17hf421c7ec894951b1E+0x1920>
    58cc:	48 8b 84 24 80 00 00 	mov    rax,QWORD PTR [rsp+0x80]
    58d3:	00 
    58d4:	48 89 44 24 50       	mov    QWORD PTR [rsp+0x50],rax
    58d9:	66 0f 6f 44 24 70    	movdqa xmm0,XMMWORD PTR [rsp+0x70]
    58df:	66 0f 7f 44 24 40    	movdqa XMMWORD PTR [rsp+0x40],xmm0
    58e5:	48 89 54 24 70       	mov    QWORD PTR [rsp+0x70],rdx
    58ea:	48 8d 05 9f ee ff ff 	lea    rax,[rip+0xffffffffffffee9f]        # 4790 <_ZN60_$LT$alloc..string..String$u20$as$u20$core..fmt..Display$GT$3fmt17hdafee51ac588e3beE>
    58f1:	48 89 44 24 78       	mov    QWORD PTR [rsp+0x78],rax
    58f6:	48 8d 05 c3 b5 22 00 	lea    rax,[rip+0x22b5c3]        # 230ec0 <ref.1O>
    58fd:	48 89 04 24          	mov    QWORD PTR [rsp],rax
    5901:	48 c7 44 24 08 01 00 	mov    QWORD PTR [rsp+0x8],0x1
    5908:	00 00 
    590a:	48 c7 44 24 10 00 00 	mov    QWORD PTR [rsp+0x10],0x0
    5911:	00 00 
    5913:	48 89 5c 24 20       	mov    QWORD PTR [rsp+0x20],rbx
    5918:	48 c7 44 24 28 01 00 	mov    QWORD PTR [rsp+0x28],0x1
    591f:	00 00 
    5921:	48 8d bc 24 40 01 00 	lea    rdi,[rsp+0x140]
    5928:	00 
    5929:	48 89 e6             	mov    rsi,rsp
    592c:	e8 4f 7e 01 00       	call   1d780 <_ZN5alloc3fmt6format17h74c5f89095a65e97E>
    5931:	48 8b 74 24 48       	mov    rsi,QWORD PTR [rsp+0x48]
    5936:	48 85 f6             	test   rsi,rsi
    5939:	74 0f                	je     594a <_ZN6binary4main17hf421c7ec894951b1E+0x117a>
    593b:	48 8b 7c 24 40       	mov    rdi,QWORD PTR [rsp+0x40]
    5940:	ba 01 00 00 00       	mov    edx,0x1
    5945:	e8 26 09 00 00       	call   6270 <__rust_dealloc>
    594a:	48 8b b4 24 28 01 00 	mov    rsi,QWORD PTR [rsp+0x128]
    5951:	00 
    5952:	48 85 f6             	test   rsi,rsi
    5955:	74 12                	je     5969 <_ZN6binary4main17hf421c7ec894951b1E+0x1199>
    5957:	48 8b bc 24 20 01 00 	mov    rdi,QWORD PTR [rsp+0x120]
    595e:	00 
    595f:	ba 01 00 00 00       	mov    edx,0x1
    5964:	e8 07 09 00 00       	call   6270 <__rust_dealloc>
    5969:	48 8b b4 24 68 01 00 	mov    rsi,QWORD PTR [rsp+0x168]
    5970:	00 
    5971:	48 85 f6             	test   rsi,rsi
    5974:	74 16                	je     598c <_ZN6binary4main17hf421c7ec894951b1E+0x11bc>
    5976:	48 8b bc 24 60 01 00 	mov    rdi,QWORD PTR [rsp+0x160]
    597d:	00 
    597e:	48 c1 e6 02          	shl    rsi,0x2
    5982:	ba 04 00 00 00       	mov    edx,0x4
    5987:	e8 e4 08 00 00       	call   6270 <__rust_dealloc>
    598c:	48 8b 84 24 40 01 00 	mov    rax,QWORD PTR [rsp+0x140]
    5993:	00 
    5994:	48 89 84 24 a0 00 00 	mov    QWORD PTR [rsp+0xa0],rax
    599b:	00 
    599c:	48 c7 84 24 a8 00 00 	mov    QWORD PTR [rsp+0xa8],0xc
    59a3:	00 0c 00 00 00 
    59a8:	48 8d 84 24 a0 00 00 	lea    rax,[rsp+0xa0]
    59af:	00 
    59b0:	48 89 44 24 70       	mov    QWORD PTR [rsp+0x70],rax
    59b5:	48 8d 05 b4 ed ff ff 	lea    rax,[rip+0xffffffffffffedb4]        # 4770 <_ZN55_$LT$$RF$$u27$a$u20$T$u20$as$u20$core..fmt..Display$GT$3fmt17h5a42737e80ae02e7E>
    59bc:	48 89 44 24 78       	mov    QWORD PTR [rsp+0x78],rax
    59c1:	48 8d 05 08 b5 22 00 	lea    rax,[rip+0x22b508]        # 230ed0 <ref.1P>
    59c8:	48 89 04 24          	mov    QWORD PTR [rsp],rax
    59cc:	48 c7 44 24 08 02 00 	mov    QWORD PTR [rsp+0x8],0x2
    59d3:	00 00 
    59d5:	48 c7 44 24 10 00 00 	mov    QWORD PTR [rsp+0x10],0x0
    59dc:	00 00 
    59de:	48 89 5c 24 20       	mov    QWORD PTR [rsp+0x20],rbx
    59e3:	48 c7 44 24 28 01 00 	mov    QWORD PTR [rsp+0x28],0x1
    59ea:	00 00 
    59ec:	48 89 e7             	mov    rdi,rsp
    59ef:	e8 cc 91 00 00       	call   ebc0 <_ZN3std2io5stdio6_print17ha2600cbffab86873E>
    59f4:	49 89 e5             	mov    r13,rsp
    59f7:	4c 8d bc 24 18 01 00 	lea    r15,[rsp+0x118]
    59fe:	00 
    59ff:	49 be 09 21 84 10 42 	movabs r14,0x8421084210842109
    5a06:	08 21 84 
    5a09:	4c 8d 25 db e1 01 00 	lea    r12,[rip+0x1e1db]        # 23beb <byte_str.1t>
    5a10:	48 c7 04 24 01 00 00 	mov    QWORD PTR [rsp],0x1
    5a17:	00 
    5a18:	48 8d 44 24 08       	lea    rax,[rsp+0x8]
    5a1d:	66 0f ef c0          	pxor   xmm0,xmm0
    5a21:	f3 0f 7f 00          	movdqu XMMWORD PTR [rax],xmm0
    5a25:	31 f6                	xor    esi,esi
    5a27:	4c 89 ef             	mov    rdi,r13
    5a2a:	e8 31 e9 ff ff       	call   4360 <_ZN33_$LT$alloc..vec..Vec$LT$T$GT$$GT$7reserve17hff3cdc1123f50b03E>
    5a2f:	bd 10 00 00 00       	mov    ebp,0x10
    5a34:	66 66 66 2e 0f 1f 84 	data16 data16 nop WORD PTR cs:[rax+rax*1+0x0]
    5a3b:	00 00 00 00 00 
    5a40:	4c 89 ff             	mov    rdi,r15
    5a43:	e8 18 36 00 00       	call   9060 <_ZN45_$LT$rand..ThreadRng$u20$as$u20$rand..Rng$GT$8next_u6417h787408e0787d47d2E>
    5a48:	48 89 c3             	mov    rbx,rax
    5a4b:	48 83 fb ef          	cmp    rbx,0xffffffffffffffef
    5a4f:	77 ef                	ja     5a40 <_ZN6binary4main17hf421c7ec894951b1E+0x1270>
    5a51:	48 89 d8             	mov    rax,rbx
    5a54:	48 d1 e8             	shr    rax,1
    5a57:	49 f7 e6             	mul    r14
    5a5a:	48 c1 ea 04          	shr    rdx,0x4
    5a5e:	48 6b c2 3e          	imul   rax,rdx,0x3e
    5a62:	48 29 c3             	sub    rbx,rax
    5a65:	4c 01 e3             	add    rbx,r12
    5a68:	0f 84 8d 02 00 00    	je     5cfb <_ZN6binary4main17hf421c7ec894951b1E+0x152b>
    5a6e:	48 8b 44 24 10       	mov    rax,QWORD PTR [rsp+0x10]
    5a73:	48 3b 44 24 08       	cmp    rax,QWORD PTR [rsp+0x8]
    5a78:	75 0d                	jne    5a87 <_ZN6binary4main17hf421c7ec894951b1E+0x12b7>
    5a7a:	4c 89 ef             	mov    rdi,r13
    5a7d:	e8 2e ea ff ff       	call   44b0 <_ZN49_$LT$alloc..raw_vec..RawVec$LT$T$C$$u20$A$GT$$GT$6double17hee187990fa44ae01E>
    5a82:	48 8b 44 24 10       	mov    rax,QWORD PTR [rsp+0x10]
    5a87:	48 ff cd             	dec    rbp
    5a8a:	0f b6 0b             	movzx  ecx,BYTE PTR [rbx]
    5a8d:	48 8b 14 24          	mov    rdx,QWORD PTR [rsp]
    5a91:	88 0c 02             	mov    BYTE PTR [rdx+rax*1],cl
    5a94:	48 ff c0             	inc    rax
    5a97:	48 89 44 24 10       	mov    QWORD PTR [rsp+0x10],rax
    5a9c:	48 85 ed             	test   rbp,rbp
    5a9f:	75 9f                	jne    5a40 <_ZN6binary4main17hf421c7ec894951b1E+0x1270>
    5aa1:	48 8b 44 24 10       	mov    rax,QWORD PTR [rsp+0x10]
    5aa6:	48 89 84 24 f0 00 00 	mov    QWORD PTR [rsp+0xf0],rax
    5aad:	00 
    5aae:	0f 10 04 24          	movups xmm0,XMMWORD PTR [rsp]
    5ab2:	0f 29 84 24 e0 00 00 	movaps XMMWORD PTR [rsp+0xe0],xmm0
    5ab9:	00 
    5aba:	48 8b 84 24 e0 00 00 	mov    rax,QWORD PTR [rsp+0xe0]
    5ac1:	00 
    5ac2:	48 89 44 24 60       	mov    QWORD PTR [rsp+0x60],rax
    5ac7:	48 8b b4 24 f0 00 00 	mov    rsi,QWORD PTR [rsp+0xf0]
    5ace:	00 
    5acf:	48 8b 05 4a e0 01 00 	mov    rax,QWORD PTR [rip+0x1e04a]        # 23b20 <const.1m+0x10>
    5ad6:	48 89 84 24 80 00 00 	mov    QWORD PTR [rsp+0x80],rax
    5add:	00 
    5ade:	f3 0f 6f 05 2a e0 01 	movdqu xmm0,XMMWORD PTR [rip+0x1e02a]        # 23b10 <const.1m>
    5ae5:	00 
    5ae6:	66 0f 7f 44 24 70    	movdqa XMMWORD PTR [rsp+0x70],xmm0
    5aec:	48 8d 6c 24 40       	lea    rbp,[rsp+0x40]
    5af1:	48 89 ef             	mov    rdi,rbp
    5af4:	48 89 74 24 38       	mov    QWORD PTR [rsp+0x38],rsi
    5af9:	48 8d 54 24 70       	lea    rdx,[rsp+0x70]
    5afe:	e8 9d 15 00 00       	call   70a0 <_ZN6base646encode12encoded_size17h43525f70931340cdE>
    5b03:	48 83 7c 24 40 00    	cmp    QWORD PTR [rsp+0x40],0x0
    5b09:	0f 84 f8 01 00 00    	je     5d07 <_ZN6binary4main17hf421c7ec894951b1E+0x1537>
    5b0f:	48 8b 5c 24 48       	mov    rbx,QWORD PTR [rsp+0x48]
    5b14:	48 85 db             	test   rbx,rbx
    5b17:	74 27                	je     5b40 <_ZN6binary4main17hf421c7ec894951b1E+0x1370>
    5b19:	be 01 00 00 00       	mov    esi,0x1
    5b1e:	48 89 df             	mov    rdi,rbx
    5b21:	4c 89 ea             	mov    rdx,r13
    5b24:	e8 27 07 00 00       	call   6250 <__rust_alloc>
    5b29:	49 89 c6             	mov    r14,rax
    5b2c:	4d 85 f6             	test   r14,r14
    5b2f:	75 15                	jne    5b46 <_ZN6binary4main17hf421c7ec894951b1E+0x1376>
    5b31:	e9 fa 01 00 00       	jmp    5d30 <_ZN6binary4main17hf421c7ec894951b1E+0x1560>
    5b36:	66 2e 0f 1f 84 00 00 	nop    WORD PTR cs:[rax+rax*1+0x0]
    5b3d:	00 00 00 
    5b40:	41 be 01 00 00 00    	mov    r14d,0x1
    5b46:	4c 89 b4 24 a0 00 00 	mov    QWORD PTR [rsp+0xa0],r14
    5b4d:	00 
    5b4e:	48 89 9c 24 a8 00 00 	mov    QWORD PTR [rsp+0xa8],rbx
    5b55:	00 
    5b56:	48 c7 84 24 b0 00 00 	mov    QWORD PTR [rsp+0xb0],0x0
    5b5d:	00 00 00 00 00 
    5b62:	48 8b 84 24 80 00 00 	mov    rax,QWORD PTR [rsp+0x80]
    5b69:	00 
    5b6a:	48 89 44 24 10       	mov    QWORD PTR [rsp+0x10],rax
    5b6f:	66 0f 6f 44 24 70    	movdqa xmm0,XMMWORD PTR [rsp+0x70]
    5b75:	66 0f 7f 04 24       	movdqa XMMWORD PTR [rsp],xmm0
    5b7a:	48 89 ef             	mov    rdi,rbp
    5b7d:	48 8b 74 24 38       	mov    rsi,QWORD PTR [rsp+0x38]
    5b82:	4c 89 ed             	mov    rbp,r13
    5b85:	4c 89 ea             	mov    rdx,r13
    5b88:	e8 13 15 00 00       	call   70a0 <_ZN6base646encode12encoded_size17h43525f70931340cdE>
    5b8d:	48 83 7c 24 40 00    	cmp    QWORD PTR [rsp+0x40],0x0
    5b93:	0f 84 86 01 00 00    	je     5d1f <_ZN6binary4main17hf421c7ec894951b1E+0x154f>
    5b99:	4c 8b 6c 24 48       	mov    r13,QWORD PTR [rsp+0x48]
    5b9e:	4d 85 ed             	test   r13,r13
    5ba1:	74 5d                	je     5c00 <_ZN6binary4main17hf421c7ec894951b1E+0x1430>
    5ba3:	48 8d bc 24 a0 00 00 	lea    rdi,[rsp+0xa0]
    5baa:	00 
    5bab:	4c 89 ee             	mov    rsi,r13
    5bae:	e8 ad e7 ff ff       	call   4360 <_ZN33_$LT$alloc..vec..Vec$LT$T$GT$$GT$7reserve17hff3cdc1123f50b03E>
    5bb3:	4c 8b b4 24 a0 00 00 	mov    r14,QWORD PTR [rsp+0xa0]
    5bba:	00 
    5bbb:	48 8b 9c 24 b0 00 00 	mov    rbx,QWORD PTR [rsp+0xb0]
    5bc2:	00 
    5bc3:	49 8d 3c 1e          	lea    rdi,[r14+rbx*1]
    5bc7:	49 83 fd 02          	cmp    r13,0x2
    5bcb:	72 14                	jb     5be1 <_ZN6binary4main17hf421c7ec894951b1E+0x1411>
    5bcd:	49 8d 55 ff          	lea    rdx,[r13-0x1]
    5bd1:	4a 8d 5c 2b ff       	lea    rbx,[rbx+r13*1-0x1]
    5bd6:	31 f6                	xor    esi,esi
    5bd8:	e8 9b e4 ff ff       	call   4078 <memset@plt>
    5bdd:	49 8d 3c 1e          	lea    rdi,[r14+rbx*1]
    5be1:	c6 07 00             	mov    BYTE PTR [rdi],0x0
    5be4:	48 ff c3             	inc    rbx
    5be7:	48 89 9c 24 b0 00 00 	mov    QWORD PTR [rsp+0xb0],rbx
    5bee:	00 
    5bef:	eb 11                	jmp    5c02 <_ZN6binary4main17hf421c7ec894951b1E+0x1432>
    5bf1:	66 66 66 66 66 66 2e 	data16 data16 data16 data16 data16 nop WORD PTR cs:[rax+rax*1+0x0]
    5bf8:	0f 1f 84 00 00 00 00 
    5bff:	00 
    5c00:	31 db                	xor    ebx,ebx
    5c02:	48 8b 7c 24 60       	mov    rdi,QWORD PTR [rsp+0x60]
    5c07:	48 8b 74 24 38       	mov    rsi,QWORD PTR [rsp+0x38]
    5c0c:	48 89 ea             	mov    rdx,rbp
    5c0f:	4c 89 e9             	mov    rcx,r13
    5c12:	4d 89 f0             	mov    r8,r14
    5c15:	49 89 d9             	mov    r9,rbx
    5c18:	e8 e3 0d 00 00       	call   6a00 <_ZN6base646encode29encode_with_padding_line_wrap17h200e5269bdac38a9E>
    5c1d:	48 8b 84 24 b0 00 00 	mov    rax,QWORD PTR [rsp+0xb0]
    5c24:	00 
    5c25:	48 89 44 24 50       	mov    QWORD PTR [rsp+0x50],rax
    5c2a:	f3 0f 6f 84 24 a0 00 	movdqu xmm0,XMMWORD PTR [rsp+0xa0]
    5c31:	00 00 
    5c33:	66 0f 7f 44 24 40    	movdqa XMMWORD PTR [rsp+0x40],xmm0
    5c39:	48 8d 44 24 40       	lea    rax,[rsp+0x40]
    5c3e:	48 89 84 24 a0 00 00 	mov    QWORD PTR [rsp+0xa0],rax
    5c45:	00 
    5c46:	48 8d 05 43 eb ff ff 	lea    rax,[rip+0xffffffffffffeb43]        # 4790 <_ZN60_$LT$alloc..string..String$u20$as$u20$core..fmt..Display$GT$3fmt17hdafee51ac588e3beE>
    5c4d:	48 89 84 24 a8 00 00 	mov    QWORD PTR [rsp+0xa8],rax
    5c54:	00 
    5c55:	48 8d 05 94 b2 22 00 	lea    rax,[rip+0x22b294]        # 230ef0 <ref.1S>
    5c5c:	48 89 04 24          	mov    QWORD PTR [rsp],rax
    5c60:	48 c7 44 24 08 02 00 	mov    QWORD PTR [rsp+0x8],0x2
    5c67:	00 00 
    5c69:	48 c7 44 24 10 00 00 	mov    QWORD PTR [rsp+0x10],0x0
    5c70:	00 00 
    5c72:	48 8d 84 24 a0 00 00 	lea    rax,[rsp+0xa0]
    5c79:	00 
    5c7a:	48 89 44 24 20       	mov    QWORD PTR [rsp+0x20],rax
    5c7f:	48 c7 44 24 28 01 00 	mov    QWORD PTR [rsp+0x28],0x1
    5c86:	00 00 
    5c88:	49 89 ed             	mov    r13,rbp
    5c8b:	4c 89 ef             	mov    rdi,r13
    5c8e:	e8 2d 8f 00 00       	call   ebc0 <_ZN3std2io5stdio6_print17ha2600cbffab86873E>
    5c93:	48 8b 74 24 48       	mov    rsi,QWORD PTR [rsp+0x48]
    5c98:	48 85 f6             	test   rsi,rsi
    5c9b:	74 0f                	je     5cac <_ZN6binary4main17hf421c7ec894951b1E+0x14dc>
    5c9d:	48 8b 7c 24 40       	mov    rdi,QWORD PTR [rsp+0x40]
    5ca2:	ba 01 00 00 00       	mov    edx,0x1
    5ca7:	e8 c4 05 00 00       	call   6270 <__rust_dealloc>
    5cac:	48 8b b4 24 e8 00 00 	mov    rsi,QWORD PTR [rsp+0xe8]
    5cb3:	00 
    5cb4:	48 85 f6             	test   rsi,rsi
    5cb7:	49 be 09 21 84 10 42 	movabs r14,0x8421084210842109
    5cbe:	08 21 84 
    5cc1:	74 0f                	je     5cd2 <_ZN6binary4main17hf421c7ec894951b1E+0x1502>
    5cc3:	ba 01 00 00 00       	mov    edx,0x1
    5cc8:	48 8b 7c 24 60       	mov    rdi,QWORD PTR [rsp+0x60]
    5ccd:	e8 9e 05 00 00       	call   6270 <__rust_dealloc>
    5cd2:	48 c7 84 24 78 01 00 	mov    QWORD PTR [rsp+0x178],0x0
    5cd9:	00 00 00 00 00 
    5cde:	c7 84 24 80 01 00 00 	mov    DWORD PTR [rsp+0x180],0xf4240
    5ce5:	40 42 0f 00 
    5ce9:	48 8d bc 24 78 01 00 	lea    rdi,[rsp+0x178]
    5cf0:	00 
    5cf1:	e8 fa 69 00 00       	call   c6f0 <_ZN3std6thread5sleep17heee2828c335b094dE>
    5cf6:	e9 15 fd ff ff       	jmp    5a10 <_ZN6binary4main17hf421c7ec894951b1E+0x1240>
    5cfb:	48 8d 3d 86 af 22 00 	lea    rdi,[rip+0x22af86]        # 230c88 <ref.2>
    5d02:	e8 d9 8a 01 00       	call   1e7e0 <_ZN4core9panicking5panic17h7bac37468d8048c5E>
    5d07:	48 8d 3d 82 de 01 00 	lea    rdi,[rip+0x1de82]        # 23b90 <str.1q>
    5d0e:	48 8d 15 03 b1 22 00 	lea    rdx,[rip+0x22b103]        # 230e18 <ref.1o>
    5d15:	be 2d 00 00 00       	mov    esi,0x2d
    5d1a:	e8 21 e7 ff ff       	call   4440 <_ZN3std9panicking11begin_panic17hd434d3b372e7da22E>
    5d1f:	48 8d 3d 9a de 01 00 	lea    rdi,[rip+0x1de9a]        # 23bc0 <str.1r>
    5d26:	be 2b 00 00 00       	mov    esi,0x2b
    5d2b:	e8 f0 8b 01 00       	call   1e920 <_ZN4core6option13expect_failed17hea9c17570c15aad1E>
    5d30:	0f 10 44 24 08       	movups xmm0,XMMWORD PTR [rsp+0x8]
    5d35:	0f 29 84 24 20 01 00 	movaps XMMWORD PTR [rsp+0x120],xmm0
    5d3c:	00 
    5d3d:	0f 28 84 24 20 01 00 	movaps xmm0,XMMWORD PTR [rsp+0x120]
    5d44:	00 
    5d45:	0f 11 44 24 08       	movups XMMWORD PTR [rsp+0x8],xmm0
    5d4a:	48 89 e7             	mov    rdi,rsp
    5d4d:	e8 5e ea ff ff       	call   47b0 <_ZN61_$LT$alloc..heap..Heap$u20$as$u20$alloc..allocator..Alloc$GT$3oom17hba3f1ad762ab25d1E>
    5d52:	49 83 c7 fa          	add    r15,0xfffffffffffffffa
    5d56:	e9 5e 02 00 00       	jmp    5fb9 <_ZN6binary4main17hf421c7ec894951b1E+0x17e9>
    5d5b:	49 83 c7 fb          	add    r15,0xfffffffffffffffb
    5d5f:	e9 55 02 00 00       	jmp    5fb9 <_ZN6binary4main17hf421c7ec894951b1E+0x17e9>
    5d64:	49 83 c7 fc          	add    r15,0xfffffffffffffffc
    5d68:	e9 4c 02 00 00       	jmp    5fb9 <_ZN6binary4main17hf421c7ec894951b1E+0x17e9>
    5d6d:	49 83 c7 fd          	add    r15,0xfffffffffffffffd
    5d71:	e9 43 02 00 00       	jmp    5fb9 <_ZN6binary4main17hf421c7ec894951b1E+0x17e9>
    5d76:	49 83 c7 fe          	add    r15,0xfffffffffffffffe
    5d7a:	e9 3a 02 00 00       	jmp    5fb9 <_ZN6binary4main17hf421c7ec894951b1E+0x17e9>
    5d7f:	49 ff cf             	dec    r15
    5d82:	e9 32 02 00 00       	jmp    5fb9 <_ZN6binary4main17hf421c7ec894951b1E+0x17e9>
    5d87:	01 f9                	add    ecx,edi
    5d89:	85 c9                	test   ecx,ecx
    5d8b:	4c 0f 4f fb          	cmovg  r15,rbx
    5d8f:	4d 01 c7             	add    r15,r8
    5d92:	40 b5 3d             	mov    bpl,0x3d
    5d95:	e9 1f 02 00 00       	jmp    5fb9 <_ZN6binary4main17hf421c7ec894951b1E+0x17e9>
    5d9a:	48 8d 3d 5f b0 22 00 	lea    rdi,[rip+0x22b05f]        # 230e00 <panic_bounds_check_loc.1k>
    5da1:	e8 aa 8a 01 00       	call   1e850 <_ZN4core9panicking18panic_bounds_check17h8ce175fa420c7319E>
    5da6:	48 c7 c7 e0 ff ff ff 	mov    rdi,0xffffffffffffffe0
    5dad:	4c 89 d6             	mov    rsi,r10
    5db0:	e8 3b 8c 01 00       	call   1e9f0 <_ZN4core5slice22slice_index_order_fail17hb9a50cb9e107e8b3E>
    5db5:	4c 89 d7             	mov    rdi,r10
    5db8:	48 89 de             	mov    rsi,rbx
    5dbb:	e8 c0 8b 01 00       	call   1e980 <_ZN4core5slice20slice_index_len_fail17hbe9a58121bca4535E>
    5dc0:	48 89 d7             	mov    rdi,rdx
    5dc3:	4c 89 ce             	mov    rsi,r9
    5dc6:	e8 b5 8b 01 00       	call   1e980 <_ZN4core5slice20slice_index_len_fail17hbe9a58121bca4535E>
    5dcb:	49 83 c7 f0          	add    r15,0xfffffffffffffff0
    5dcf:	e9 e5 01 00 00       	jmp    5fb9 <_ZN6binary4main17hf421c7ec894951b1E+0x17e9>
    5dd4:	49 83 c7 f1          	add    r15,0xfffffffffffffff1
    5dd8:	e9 dc 01 00 00       	jmp    5fb9 <_ZN6binary4main17hf421c7ec894951b1E+0x17e9>
    5ddd:	49 83 c7 f2          	add    r15,0xfffffffffffffff2
    5de1:	e9 d3 01 00 00       	jmp    5fb9 <_ZN6binary4main17hf421c7ec894951b1E+0x17e9>
    5de6:	49 83 c7 f3          	add    r15,0xfffffffffffffff3
    5dea:	e9 ca 01 00 00       	jmp    5fb9 <_ZN6binary4main17hf421c7ec894951b1E+0x17e9>
    5def:	49 83 c7 f4          	add    r15,0xfffffffffffffff4
    5df3:	e9 c1 01 00 00       	jmp    5fb9 <_ZN6binary4main17hf421c7ec894951b1E+0x17e9>
    5df8:	49 83 c7 f5          	add    r15,0xfffffffffffffff5
    5dfc:	e9 b8 01 00 00       	jmp    5fb9 <_ZN6binary4main17hf421c7ec894951b1E+0x17e9>
    5e01:	49 83 c7 f6          	add    r15,0xfffffffffffffff6
    5e05:	e9 af 01 00 00       	jmp    5fb9 <_ZN6binary4main17hf421c7ec894951b1E+0x17e9>
    5e0a:	49 83 c7 f7          	add    r15,0xfffffffffffffff7
    5e0e:	e9 a6 01 00 00       	jmp    5fb9 <_ZN6binary4main17hf421c7ec894951b1E+0x17e9>
    5e13:	49 83 c7 f8          	add    r15,0xfffffffffffffff8
    5e17:	e9 9d 01 00 00       	jmp    5fb9 <_ZN6binary4main17hf421c7ec894951b1E+0x17e9>
    5e1c:	49 83 c7 f9          	add    r15,0xfffffffffffffff9
    5e20:	e9 94 01 00 00       	jmp    5fb9 <_ZN6binary4main17hf421c7ec894951b1E+0x17e9>
    5e25:	49 ff c7             	inc    r15
    5e28:	e9 8c 01 00 00       	jmp    5fb9 <_ZN6binary4main17hf421c7ec894951b1E+0x17e9>
    5e2d:	49 83 c7 02          	add    r15,0x2
    5e31:	e9 83 01 00 00       	jmp    5fb9 <_ZN6binary4main17hf421c7ec894951b1E+0x17e9>
    5e36:	49 83 c7 03          	add    r15,0x3
    5e3a:	e9 7a 01 00 00       	jmp    5fb9 <_ZN6binary4main17hf421c7ec894951b1E+0x17e9>
    5e3f:	49 83 c7 04          	add    r15,0x4
    5e43:	e9 71 01 00 00       	jmp    5fb9 <_ZN6binary4main17hf421c7ec894951b1E+0x17e9>
    5e48:	49 83 c7 05          	add    r15,0x5
    5e4c:	e9 68 01 00 00       	jmp    5fb9 <_ZN6binary4main17hf421c7ec894951b1E+0x17e9>
    5e51:	49 83 c7 06          	add    r15,0x6
    5e55:	e9 5f 01 00 00       	jmp    5fb9 <_ZN6binary4main17hf421c7ec894951b1E+0x17e9>
    5e5a:	49 83 c7 07          	add    r15,0x7
    5e5e:	e9 56 01 00 00       	jmp    5fb9 <_ZN6binary4main17hf421c7ec894951b1E+0x17e9>
    5e63:	49 83 c7 08          	add    r15,0x8
    5e67:	e9 4d 01 00 00       	jmp    5fb9 <_ZN6binary4main17hf421c7ec894951b1E+0x17e9>
    5e6c:	49 83 c7 09          	add    r15,0x9
    5e70:	e9 44 01 00 00       	jmp    5fb9 <_ZN6binary4main17hf421c7ec894951b1E+0x17e9>
    5e75:	49 83 c7 0a          	add    r15,0xa
    5e79:	e9 3b 01 00 00       	jmp    5fb9 <_ZN6binary4main17hf421c7ec894951b1E+0x17e9>
    5e7e:	49 83 c7 0b          	add    r15,0xb
    5e82:	e9 32 01 00 00       	jmp    5fb9 <_ZN6binary4main17hf421c7ec894951b1E+0x17e9>
    5e87:	49 83 c7 0c          	add    r15,0xc
    5e8b:	e9 29 01 00 00       	jmp    5fb9 <_ZN6binary4main17hf421c7ec894951b1E+0x17e9>
    5e90:	49 83 c7 0d          	add    r15,0xd
    5e94:	e9 20 01 00 00       	jmp    5fb9 <_ZN6binary4main17hf421c7ec894951b1E+0x17e9>
    5e99:	49 83 c7 0e          	add    r15,0xe
    5e9d:	e9 17 01 00 00       	jmp    5fb9 <_ZN6binary4main17hf421c7ec894951b1E+0x17e9>
    5ea2:	49 83 c7 0f          	add    r15,0xf
    5ea6:	e9 0e 01 00 00       	jmp    5fb9 <_ZN6binary4main17hf421c7ec894951b1E+0x17e9>
    5eab:	49 83 c7 f9          	add    r15,0xfffffffffffffff9
    5eaf:	4c 89 ff             	mov    rdi,r15
    5eb2:	48 89 de             	mov    rsi,rbx
    5eb5:	e8 36 8b 01 00       	call   1e9f0 <_ZN4core5slice22slice_index_order_fail17hb9a50cb9e107e8b3E>
    5eba:	e8 31 8b 01 00       	call   1e9f0 <_ZN4core5slice22slice_index_order_fail17hb9a50cb9e107e8b3E>
    5ebf:	48 83 c7 06          	add    rdi,0x6
    5ec3:	4c 89 ce             	mov    rsi,r9
    5ec6:	e8 b5 8a 01 00       	call   1e980 <_ZN4core5slice20slice_index_len_fail17hbe9a58121bca4535E>
    5ecb:	48 8d 3d 36 ae 22 00 	lea    rdi,[rip+0x22ae36]        # 230d08 <panic_bounds_check_loc.P>
    5ed2:	31 f6                	xor    esi,esi
    5ed4:	31 d2                	xor    edx,edx
    5ed6:	e8 75 89 01 00       	call   1e850 <_ZN4core9panicking18panic_bounds_check17h8ce175fa420c7319E>
    5edb:	31 ff                	xor    edi,edi
    5edd:	49 89 cf             	mov    r15,rcx
    5ee0:	e9 d6 00 00 00       	jmp    5fbb <_ZN6binary4main17hf421c7ec894951b1E+0x17eb>
    5ee5:	48 8d 3d 34 ae 22 00 	lea    rdi,[rip+0x22ae34]        # 230d20 <panic_bounds_check_loc.S>
    5eec:	be 01 00 00 00       	mov    esi,0x1
    5ef1:	e8 5a 89 01 00       	call   1e850 <_ZN4core9panicking18panic_bounds_check17h8ce175fa420c7319E>
    5ef6:	48 8d 3d 3b ae 22 00 	lea    rdi,[rip+0x22ae3b]        # 230d38 <panic_bounds_check_loc.V>
    5efd:	be 02 00 00 00       	mov    esi,0x2
    5f02:	e8 49 89 01 00       	call   1e850 <_ZN4core9panicking18panic_bounds_check17h8ce175fa420c7319E>
    5f07:	48 8d 3d 42 ae 22 00 	lea    rdi,[rip+0x22ae42]        # 230d50 <panic_bounds_check_loc.Y>
    5f0e:	be 03 00 00 00       	mov    esi,0x3
    5f13:	e8 38 89 01 00       	call   1e850 <_ZN4core9panicking18panic_bounds_check17h8ce175fa420c7319E>
    5f18:	48 8d 3d 49 ae 22 00 	lea    rdi,[rip+0x22ae49]        # 230d68 <panic_bounds_check_loc.11>
    5f1f:	be 04 00 00 00       	mov    esi,0x4
    5f24:	e8 27 89 01 00       	call   1e850 <_ZN4core9panicking18panic_bounds_check17h8ce175fa420c7319E>
    5f29:	48 8d 3d 50 ae 22 00 	lea    rdi,[rip+0x22ae50]        # 230d80 <panic_bounds_check_loc.14>
    5f30:	be 05 00 00 00       	mov    esi,0x5
    5f35:	e8 16 89 01 00       	call   1e850 <_ZN4core9panicking18panic_bounds_check17h8ce175fa420c7319E>
    5f3a:	48 8d 3d 57 ae 22 00 	lea    rdi,[rip+0x22ae57]        # 230d98 <panic_bounds_check_loc.17>
    5f41:	be 06 00 00 00       	mov    esi,0x6
    5f46:	e8 05 89 01 00       	call   1e850 <_ZN4core9panicking18panic_bounds_check17h8ce175fa420c7319E>
    5f4b:	48 8d 3d 5e ae 22 00 	lea    rdi,[rip+0x22ae5e]        # 230db0 <panic_bounds_check_loc.1a>
    5f52:	be 07 00 00 00       	mov    esi,0x7
    5f57:	e8 f4 88 01 00       	call   1e850 <_ZN4core9panicking18panic_bounds_check17h8ce175fa420c7319E>
    5f5c:	49 83 c7 08          	add    r15,0x8
    5f60:	48 c7 c7 f8 ff ff ff 	mov    rdi,0xfffffffffffffff8
    5f67:	4c 89 fe             	mov    rsi,r15
    5f6a:	e8 81 8a 01 00       	call   1e9f0 <_ZN4core5slice22slice_index_order_fail17hb9a50cb9e107e8b3E>
    5f6f:	49 83 c7 08          	add    r15,0x8
    5f73:	4c 89 ff             	mov    rdi,r15
    5f76:	48 89 de             	mov    rsi,rbx
    5f79:	e8 02 8a 01 00       	call   1e980 <_ZN4core5slice20slice_index_len_fail17hbe9a58121bca4535E>
    5f7e:	48 89 ce             	mov    rsi,rcx
    5f81:	e8 6a 8a 01 00       	call   1e9f0 <_ZN4core5slice22slice_index_order_fail17hb9a50cb9e107e8b3E>
    5f86:	48 89 cf             	mov    rdi,rcx
    5f89:	4c 89 ce             	mov    rsi,r9
    5f8c:	e8 ef 89 01 00       	call   1e980 <_ZN4core5slice20slice_index_len_fail17hbe9a58121bca4535E>
    5f91:	49 83 cf 01          	or     r15,0x1
    5f95:	eb 22                	jmp    5fb9 <_ZN6binary4main17hf421c7ec894951b1E+0x17e9>
    5f97:	49 83 cf 02          	or     r15,0x2
    5f9b:	eb 1c                	jmp    5fb9 <_ZN6binary4main17hf421c7ec894951b1E+0x17e9>
    5f9d:	49 83 cf 03          	or     r15,0x3
    5fa1:	eb 16                	jmp    5fb9 <_ZN6binary4main17hf421c7ec894951b1E+0x17e9>
    5fa3:	49 83 cf 04          	or     r15,0x4
    5fa7:	eb 10                	jmp    5fb9 <_ZN6binary4main17hf421c7ec894951b1E+0x17e9>
    5fa9:	49 83 cf 05          	or     r15,0x5
    5fad:	eb 0a                	jmp    5fb9 <_ZN6binary4main17hf421c7ec894951b1E+0x17e9>
    5faf:	49 83 cf 06          	or     r15,0x6
    5fb3:	eb 04                	jmp    5fb9 <_ZN6binary4main17hf421c7ec894951b1E+0x17e9>
    5fb5:	49 83 cf 07          	or     r15,0x7
    5fb9:	31 ff                	xor    edi,edi
    5fbb:	40 0f b6 dd          	movzx  ebx,bpl
    5fbf:	48 c1 e3 08          	shl    rbx,0x8
    5fc3:	80 7c 24 6c 00       	cmp    BYTE PTR [rsp+0x6c],0x0
    5fc8:	74 1f                	je     5fe9 <_ZN6binary4main17hf421c7ec894951b1E+0x1819>
    5fca:	48 8b 74 24 78       	mov    rsi,QWORD PTR [rsp+0x78]
    5fcf:	48 85 f6             	test   rsi,rsi
    5fd2:	74 15                	je     5fe9 <_ZN6binary4main17hf421c7ec894951b1E+0x1819>
    5fd4:	ba 01 00 00 00       	mov    edx,0x1
    5fd9:	48 89 fd             	mov    rbp,rdi
    5fdc:	48 8b 7c 24 38       	mov    rdi,QWORD PTR [rsp+0x38]
    5fe1:	e8 8a 02 00 00       	call   6270 <__rust_dealloc>
    5fe6:	48 89 ef             	mov    rdi,rbp
    5fe9:	48 09 fb             	or     rbx,rdi
    5fec:	48 8b 74 24 48       	mov    rsi,QWORD PTR [rsp+0x48]
    5ff1:	48 85 f6             	test   rsi,rsi
    5ff4:	74 0f                	je     6005 <_ZN6binary4main17hf421c7ec894951b1E+0x1835>
    5ff6:	48 8b 7c 24 40       	mov    rdi,QWORD PTR [rsp+0x40]
    5ffb:	ba 01 00 00 00       	mov    edx,0x1
    6000:	e8 6b 02 00 00       	call   6270 <__rust_dealloc>
    6005:	48 89 1c 24          	mov    QWORD PTR [rsp],rbx
    6009:	4c 89 7c 24 08       	mov    QWORD PTR [rsp+0x8],r15
    600e:	48 89 e7             	mov    rdi,rsp
    6011:	e8 ca e6 ff ff       	call   46e0 <_ZN4core6result13unwrap_failed17hd73485f0fdec7871E>
    6016:	48 8d 05 53 e7 ff ff 	lea    rax,[rip+0xffffffffffffe753]        # 4770 <_ZN55_$LT$$RF$$u27$a$u20$T$u20$as$u20$core..fmt..Display$GT$3fmt17h5a42737e80ae02e7E>
    601d:	66 48 0f 6e c0       	movq   xmm0,rax
    6022:	48 8d 05 af ad 22 00 	lea    rax,[rip+0x22adaf]        # 230dd8 <ref.1h>
    6029:	66 48 0f 6e c8       	movq   xmm1,rax
    602e:	66 0f 6c c8          	punpcklqdq xmm1,xmm0
    6032:	66 0f 7f 8c 24 40 01 	movdqa XMMWORD PTR [rsp+0x140],xmm1
    6039:	00 00 
    603b:	48 8d 05 86 ad 22 00 	lea    rax,[rip+0x22ad86]        # 230dc8 <ref.1f>
    6042:	48 89 04 24          	mov    QWORD PTR [rsp],rax
    6046:	48 c7 44 24 08 01 00 	mov    QWORD PTR [rsp+0x8],0x1
    604d:	00 00 
    604f:	48 c7 44 24 10 00 00 	mov    QWORD PTR [rsp+0x10],0x0
    6056:	00 00 
    6058:	48 8d 84 24 40 01 00 	lea    rax,[rsp+0x140]
    605f:	00 
    6060:	48 89 44 24 20       	mov    QWORD PTR [rsp+0x20],rax
    6065:	48 c7 44 24 28 01 00 	mov    QWORD PTR [rsp+0x28],0x1
    606c:	00 00 
    606e:	48 8d 35 73 ad 22 00 	lea    rsi,[rip+0x22ad73]        # 230de8 <ref.1i>
    6075:	48 89 e7             	mov    rdi,rsp
    6078:	e8 93 ff 00 00       	call   16010 <_ZN3std9panicking15begin_panic_fmt17h01bbd4a0f261f6c8E>
    607d:	0f 10 44 24 08       	movups xmm0,XMMWORD PTR [rsp+0x8]
    6082:	0f 29 84 24 a0 00 00 	movaps XMMWORD PTR [rsp+0xa0],xmm0
    6089:	00 
    608a:	48 c7 04 24 00 00 00 	mov    QWORD PTR [rsp],0x0
    6091:	00 
    6092:	0f 28 84 24 a0 00 00 	movaps xmm0,XMMWORD PTR [rsp+0xa0]
    6099:	00 
    609a:	e9 a6 fc ff ff       	jmp    5d45 <_ZN6binary4main17hf421c7ec894951b1E+0x1575>
    609f:	48 8d 3d e2 ab 22 00 	lea    rdi,[rip+0x22abe2]        # 230c88 <ref.2>
    60a6:	e8 35 87 01 00       	call   1e7e0 <_ZN4core9panicking5panic17h7bac37468d8048c5E>
    60ab:	48 8d 3d de da 01 00 	lea    rdi,[rip+0x1dade]        # 23b90 <str.1q>
    60b2:	48 8d 15 5f ad 22 00 	lea    rdx,[rip+0x22ad5f]        # 230e18 <ref.1o>
    60b9:	be 2d 00 00 00       	mov    esi,0x2d
    60be:	e8 7d e3 ff ff       	call   4440 <_ZN3std9panicking11begin_panic17hd434d3b372e7da22E>
    60c3:	48 8d 3d f6 da 01 00 	lea    rdi,[rip+0x1daf6]        # 23bc0 <str.1r>
    60ca:	be 2b 00 00 00       	mov    esi,0x2b
    60cf:	e8 4c 88 01 00       	call   1e920 <_ZN4core6option13expect_failed17hea9c17570c15aad1E>
    60d4:	48 8d 3d 05 da 01 00 	lea    rdi,[rip+0x1da05]        # 23ae0 <str.1l>
    60db:	be 2e 00 00 00       	mov    esi,0x2e
    60e0:	e8 3b 88 01 00       	call   1e920 <_ZN4core6option13expect_failed17hea9c17570c15aad1E>
    60e5:	4c 89 c7             	mov    rdi,r8
    60e8:	48 89 de             	mov    rsi,rbx
    60eb:	e8 00 89 01 00       	call   1e9f0 <_ZN4core5slice22slice_index_order_fail17hb9a50cb9e107e8b3E>
    60f0:	48 8b 84 24 90 00 00 	mov    rax,QWORD PTR [rsp+0x90]
    60f7:	00 
    60f8:	48 89 44 24 20       	mov    QWORD PTR [rsp+0x20],rax
    60fd:	66 0f 6f 44 24 70    	movdqa xmm0,XMMWORD PTR [rsp+0x70]
    6103:	66 0f 6f 8c 24 80 00 	movdqa xmm1,XMMWORD PTR [rsp+0x80]
    610a:	00 00 
    610c:	66 0f 7f 4c 24 10    	movdqa XMMWORD PTR [rsp+0x10],xmm1
    6112:	66 0f 7f 04 24       	movdqa XMMWORD PTR [rsp],xmm0
    6117:	48 89 e7             	mov    rdi,rsp
    611a:	e8 01 e5 ff ff       	call   4620 <_ZN4core6result13unwrap_failed17h0443084306b5789fE>
    611f:	4c 01 c3             	add    rbx,r8
    6122:	40 b5 3d             	mov    bpl,0x3d
    6125:	31 ff                	xor    edi,edi
    6127:	49 89 df             	mov    r15,rbx
    612a:	e9 8c fe ff ff       	jmp    5fbb <_ZN6binary4main17hf421c7ec894951b1E+0x17eb>
    612f:	4d 01 e0             	add    r8,r12
    6132:	49 01 c8             	add    r8,rcx
    6135:	31 ff                	xor    edi,edi
    6137:	4d 89 c7             	mov    r15,r8
    613a:	e9 7c fe ff ff       	jmp    5fbb <_ZN6binary4main17hf421c7ec894951b1E+0x17eb>
    613f:	48 89 e7             	mov    rdi,rsp
    6142:	e8 69 e6 ff ff       	call   47b0 <_ZN61_$LT$alloc..heap..Heap$u20$as$u20$alloc..allocator..Alloc$GT$3oom17hba3f1ad762ab25d1E>
    6147:	48 89 c3             	mov    rbx,rax
    614a:	eb 5d                	jmp    61a9 <_ZN6binary4main17hf421c7ec894951b1E+0x19d9>
    614c:	e9 8f 00 00 00       	jmp    61e0 <_ZN6binary4main17hf421c7ec894951b1E+0x1a10>
    6151:	48 89 c3             	mov    rbx,rax
    6154:	e9 97 00 00 00       	jmp    61f0 <_ZN6binary4main17hf421c7ec894951b1E+0x1a20>
    6159:	e9 9e 00 00 00       	jmp    61fc <_ZN6binary4main17hf421c7ec894951b1E+0x1a2c>
    615e:	48 89 c3             	mov    rbx,rax
    6161:	eb 3c                	jmp    619f <_ZN6binary4main17hf421c7ec894951b1E+0x19cf>
    6163:	48 89 c3             	mov    rbx,rax
    6166:	e9 9c 00 00 00       	jmp    6207 <_ZN6binary4main17hf421c7ec894951b1E+0x1a37>
    616b:	48 89 c3             	mov    rbx,rax
    616e:	48 8d 7c 24 40       	lea    rdi,[rsp+0x40]
    6173:	e8 e8 e3 ff ff       	call   4560 <_ZN4core3ptr13drop_in_place17h4da26dd4571c256fE>
    6178:	eb 2f                	jmp    61a9 <_ZN6binary4main17hf421c7ec894951b1E+0x19d9>
    617a:	48 89 c3             	mov    rbx,rax
    617d:	eb 20                	jmp    619f <_ZN6binary4main17hf421c7ec894951b1E+0x19cf>
    617f:	eb 37                	jmp    61b8 <_ZN6binary4main17hf421c7ec894951b1E+0x19e8>
    6181:	48 89 c3             	mov    rbx,rax
    6184:	48 8d 7c 24 70       	lea    rdi,[rsp+0x70]
    6189:	eb 26                	jmp    61b1 <_ZN6binary4main17hf421c7ec894951b1E+0x19e1>
    618b:	48 89 c3             	mov    rbx,rax
    618e:	80 7c 24 6c 00       	cmp    BYTE PTR [rsp+0x6c],0x0
    6193:	74 0a                	je     619f <_ZN6binary4main17hf421c7ec894951b1E+0x19cf>
    6195:	48 8d 7c 24 70       	lea    rdi,[rsp+0x70]
    619a:	e8 f1 e3 ff ff       	call   4590 <_ZN4core3ptr13drop_in_place17hc6007a3fecb81cd3E>
    619f:	48 8d 7c 24 40       	lea    rdi,[rsp+0x40]
    61a4:	e8 e7 e3 ff ff       	call   4590 <_ZN4core3ptr13drop_in_place17hc6007a3fecb81cd3E>
    61a9:	48 8d bc 24 20 01 00 	lea    rdi,[rsp+0x120]
    61b0:	00 
    61b1:	e8 aa e3 ff ff       	call   4560 <_ZN4core3ptr13drop_in_place17h4da26dd4571c256fE>
    61b6:	eb 03                	jmp    61bb <_ZN6binary4main17hf421c7ec894951b1E+0x19eb>
    61b8:	48 89 c3             	mov    rbx,rax
    61bb:	48 8d bc 24 60 01 00 	lea    rdi,[rsp+0x160]
    61c2:	00 
    61c3:	e8 08 e4 ff ff       	call   45d0 <_ZN4core3ptr13drop_in_place17hdd355b5c28e0794fE>
    61c8:	eb 4a                	jmp    6214 <_ZN6binary4main17hf421c7ec894951b1E+0x1a44>
    61ca:	48 89 c3             	mov    rbx,rax
    61cd:	eb 38                	jmp    6207 <_ZN6binary4main17hf421c7ec894951b1E+0x1a37>
    61cf:	48 89 c3             	mov    rbx,rax
    61d2:	48 8d 7c 24 40       	lea    rdi,[rsp+0x40]
    61d7:	eb 12                	jmp    61eb <_ZN6binary4main17hf421c7ec894951b1E+0x1a1b>
    61d9:	48 89 c3             	mov    rbx,rax
    61dc:	eb 12                	jmp    61f0 <_ZN6binary4main17hf421c7ec894951b1E+0x1a20>
    61de:	eb 1c                	jmp    61fc <_ZN6binary4main17hf421c7ec894951b1E+0x1a2c>
    61e0:	48 89 c3             	mov    rbx,rax
    61e3:	48 8d bc 24 a0 00 00 	lea    rdi,[rsp+0xa0]
    61ea:	00 
    61eb:	e8 70 e3 ff ff       	call   4560 <_ZN4core3ptr13drop_in_place17h4da26dd4571c256fE>
    61f0:	48 8d bc 24 e0 00 00 	lea    rdi,[rsp+0xe0]
    61f7:	00 
    61f8:	eb 08                	jmp    6202 <_ZN6binary4main17hf421c7ec894951b1E+0x1a32>
    61fa:	eb 00                	jmp    61fc <_ZN6binary4main17hf421c7ec894951b1E+0x1a2c>
    61fc:	48 89 c3             	mov    rbx,rax
    61ff:	48 89 e7             	mov    rdi,rsp
    6202:	e8 59 e3 ff ff       	call   4560 <_ZN4core3ptr13drop_in_place17h4da26dd4571c256fE>
    6207:	48 8d bc 24 40 01 00 	lea    rdi,[rsp+0x140]
    620e:	00 
    620f:	e8 4c e3 ff ff       	call   4560 <_ZN4core3ptr13drop_in_place17h4da26dd4571c256fE>
    6214:	48 8d bc 24 18 01 00 	lea    rdi,[rsp+0x118]
    621b:	00 
    621c:	e8 cf e3 ff ff       	call   45f0 <_ZN4core3ptr13drop_in_place17he450d81916622ecaE>
    6221:	48 89 df             	mov    rdi,rbx
    6224:	e8 d7 df ff ff       	call   4200 <_Unwind_Resume@plt>
    6229:	0f 1f 80 00 00 00 00 	nop    DWORD PTR [rax+0x0]

0000000000006230 <main>:
    6230:	48 89 f0             	mov    rax,rsi
    6233:	48 63 f7             	movsxd rsi,edi
    6236:	48 8d 3d 93 e5 ff ff 	lea    rdi,[rip+0xffffffffffffe593]        # 47d0 <_ZN6binary4main17hf421c7ec894951b1E>
    623d:	48 89 c2             	mov    rdx,rax
    6240:	e9 7b 01 01 00       	jmp    163c0 <_ZN3std2rt10lang_start17h380626fb88f17dcdE>
    6245:	66 2e 0f 1f 84 00 00 	nop    WORD PTR cs:[rax+rax*1+0x0]
    624c:	00 00 00 
    624f:	90                   	nop

0000000000006250 <__rust_alloc>:
    6250:	e9 0b ac 00 00       	jmp    10e60 <__rdl_alloc>
    6255:	66 2e 0f 1f 84 00 00 	nop    WORD PTR cs:[rax+rax*1+0x0]
    625c:	00 00 00 
    625f:	90                   	nop

0000000000006260 <__rust_oom>:
    6260:	e9 6b ac 00 00       	jmp    10ed0 <__rdl_oom>
    6265:	66 2e 0f 1f 84 00 00 	nop    WORD PTR cs:[rax+rax*1+0x0]
    626c:	00 00 00 
    626f:	90                   	nop

0000000000006270 <__rust_dealloc>:
    6270:	e9 8b ac 00 00       	jmp    10f00 <__rdl_dealloc>
    6275:	66 2e 0f 1f 84 00 00 	nop    WORD PTR cs:[rax+rax*1+0x0]
    627c:	00 00 00 
    627f:	90                   	nop

0000000000006280 <__rust_realloc>:
    6280:	e9 8b ac 00 00       	jmp    10f10 <__rdl_realloc>
    6285:	66 2e 0f 1f 84 00 00 	nop    WORD PTR cs:[rax+rax*1+0x0]
    628c:	00 00 00 
    628f:	90                   	nop

0000000000006290 <_ZN36_$LT$T$u20$as$u20$core..any..Any$GT$11get_type_id17hfe832cea4d88e82cE>:
    6290:	48 b8 a6 a6 64 de ab 	movabs rax,0xee57f9abde64a6a6
    6297:	f9 57 ee 
    629a:	c3                   	ret    
    629b:	0f 1f 44 00 00       	nop    DWORD PTR [rax+rax*1+0x0]

00000000000062a0 <_ZN3std9panicking11begin_panic17h079150b539280e7aE>:
    62a0:	41 57                	push   r15
    62a2:	41 56                	push   r14
    62a4:	53                   	push   rbx
    62a5:	48 83 ec 30          	sub    rsp,0x30
    62a9:	49 89 d6             	mov    r14,rdx
    62ac:	49 89 f7             	mov    r15,rsi
    62af:	48 89 fb             	mov    rbx,rdi
    62b2:	48 8d 54 24 08       	lea    rdx,[rsp+0x8]
    62b7:	bf 10 00 00 00       	mov    edi,0x10
    62bc:	be 08 00 00 00       	mov    esi,0x8
    62c1:	e8 8a ff ff ff       	call   6250 <__rust_alloc>
    62c6:	48 85 c0             	test   rax,rax
    62c9:	75 27                	jne    62f2 <_ZN3std9panicking11begin_panic17h079150b539280e7aE+0x52>
    62cb:	0f 10 44 24 10       	movups xmm0,XMMWORD PTR [rsp+0x10]
    62d0:	0f 29 44 24 20       	movaps XMMWORD PTR [rsp+0x20],xmm0
    62d5:	48 c7 44 24 08 00 00 	mov    QWORD PTR [rsp+0x8],0x0
    62dc:	00 00 
    62de:	0f 28 44 24 20       	movaps xmm0,XMMWORD PTR [rsp+0x20]
    62e3:	0f 11 44 24 10       	movups XMMWORD PTR [rsp+0x10],xmm0
    62e8:	48 8d 7c 24 08       	lea    rdi,[rsp+0x8]
    62ed:	e8 ae 00 00 00       	call   63a0 <_ZN61_$LT$alloc..heap..Heap$u20$as$u20$alloc..allocator..Alloc$GT$3oom17hba3f1ad762ab25d1E>
    62f2:	48 89 18             	mov    QWORD PTR [rax],rbx
    62f5:	4c 89 78 08          	mov    QWORD PTR [rax+0x8],r15
    62f9:	48 8d 35 10 ac 22 00 	lea    rsi,[rip+0x22ac10]        # 230f10 <vtable.4>
    6300:	48 89 c7             	mov    rdi,rax
    6303:	4c 89 f2             	mov    rdx,r14
    6306:	e8 75 fe 00 00       	call   16180 <_ZN3std9panicking20rust_panic_with_hook17h39252d3436106231E>
    630b:	0f 1f 44 00 00       	nop    DWORD PTR [rax+rax*1+0x0]

0000000000006310 <_ZN4core3ptr13drop_in_place17h4efe2aebe62afbbfE>:
    6310:	48 8b 77 08          	mov    rsi,QWORD PTR [rdi+0x8]
    6314:	48 85 f6             	test   rsi,rsi
    6317:	74 0d                	je     6326 <_ZN4core3ptr13drop_in_place17h4efe2aebe62afbbfE+0x16>
    6319:	48 8b 3f             	mov    rdi,QWORD PTR [rdi]
    631c:	ba 01 00 00 00       	mov    edx,0x1
    6321:	e9 4a ff ff ff       	jmp    6270 <__rust_dealloc>
    6326:	c3                   	ret    
    6327:	66 0f 1f 84 00 00 00 	nop    WORD PTR [rax+rax*1+0x0]
    632e:	00 00 

0000000000006330 <_ZN4core3ptr13drop_in_place17hc054f381144bcb70E>:
    6330:	c3                   	ret    
    6331:	66 2e 0f 1f 84 00 00 	nop    WORD PTR cs:[rax+rax*1+0x0]
    6338:	00 00 00 
    633b:	0f 1f 44 00 00       	nop    DWORD PTR [rax+rax*1+0x0]

0000000000006340 <_ZN4core3ptr13drop_in_place17hc151a129d09dd929E>:
    6340:	c3                   	ret    
    6341:	66 2e 0f 1f 84 00 00 	nop    WORD PTR cs:[rax+rax*1+0x0]
    6348:	00 00 00 
    634b:	0f 1f 44 00 00       	nop    DWORD PTR [rax+rax*1+0x0]

0000000000006350 <_ZN4core3ptr13drop_in_place17hf2214bc6f6f82303E>:
    6350:	c3                   	ret    
    6351:	66 2e 0f 1f 84 00 00 	nop    WORD PTR cs:[rax+rax*1+0x0]
    6358:	00 00 00 
    635b:	0f 1f 44 00 00       	nop    DWORD PTR [rax+rax*1+0x0]

0000000000006360 <_ZN53_$LT$$RF$$u27$a$u20$T$u20$as$u20$core..fmt..Debug$GT$3fmt17h4d471308529a6d22E>:
    6360:	48 8b 3f             	mov    rdi,QWORD PTR [rdi]
    6363:	e9 a8 bd 01 00       	jmp    22110 <_ZN4core3fmt3num49_$LT$impl$u20$core..fmt..Debug$u20$for$u20$u8$GT$3fmt17h0a98ae83d5ba20d3E>
    6368:	0f 1f 84 00 00 00 00 	nop    DWORD PTR [rax+rax*1+0x0]
    636f:	00 

0000000000006370 <_ZN53_$LT$$RF$$u27$a$u20$T$u20$as$u20$core..fmt..Debug$GT$3fmt17hc8e5102ec89dba1aE>:
    6370:	48 8b 3f             	mov    rdi,QWORD PTR [rdi]
    6373:	e9 d8 bc 01 00       	jmp    22050 <_ZN4core3fmt3num52_$LT$impl$u20$core..fmt..Debug$u20$for$u20$usize$GT$3fmt17hb62bc7467c8c8389E>
    6378:	0f 1f 84 00 00 00 00 	nop    DWORD PTR [rax+rax*1+0x0]
    637f:	00 

0000000000006380 <_ZN55_$LT$$RF$$u27$a$u20$T$u20$as$u20$core..fmt..Display$GT$3fmt17h2d097677d8da2e04E>:
    6380:	48 89 f0             	mov    rax,rsi
    6383:	48 8b 0f             	mov    rcx,QWORD PTR [rdi]
    6386:	48 8b 77 08          	mov    rsi,QWORD PTR [rdi+0x8]
    638a:	48 89 cf             	mov    rdi,rcx
    638d:	48 89 c2             	mov    rdx,rax
    6390:	e9 7b b4 01 00       	jmp    21810 <_ZN42_$LT$str$u20$as$u20$core..fmt..Display$GT$3fmt17ha77ab0c4fc3376b3E>
    6395:	66 2e 0f 1f 84 00 00 	nop    WORD PTR cs:[rax+rax*1+0x0]
    639c:	00 00 00 
    639f:	90                   	nop

00000000000063a0 <_ZN61_$LT$alloc..heap..Heap$u20$as$u20$alloc..allocator..Alloc$GT$3oom17hba3f1ad762ab25d1E>:
    63a0:	48 83 ec 18          	sub    rsp,0x18
    63a4:	48 8b 47 10          	mov    rax,QWORD PTR [rdi+0x10]
    63a8:	48 89 44 24 10       	mov    QWORD PTR [rsp+0x10],rax
    63ad:	0f 10 07             	movups xmm0,XMMWORD PTR [rdi]
    63b0:	0f 29 04 24          	movaps XMMWORD PTR [rsp],xmm0
    63b4:	48 89 e7             	mov    rdi,rsp
    63b7:	e8 a4 fe ff ff       	call   6260 <__rust_oom>
    63bc:	0f 1f 40 00          	nop    DWORD PTR [rax+0x0]

00000000000063c0 <_ZN7safemem9copy_over17h1bc3be94c024e990E>:
    63c0:	48 81 ec 88 00 00 00 	sub    rsp,0x88
    63c7:	48 89 54 24 70       	mov    QWORD PTR [rsp+0x70],rdx
    63cc:	48 89 4c 24 78       	mov    QWORD PTR [rsp+0x78],rcx
    63d1:	4c 89 84 24 80 00 00 	mov    QWORD PTR [rsp+0x80],r8
    63d8:	00 
    63d9:	48 85 f6             	test   rsi,rsi
    63dc:	74 4c                	je     642a <_ZN7safemem9copy_over17h1bc3be94c024e990E+0x6a>
    63de:	48 39 f2             	cmp    rdx,rsi
    63e1:	73 4f                	jae    6432 <_ZN7safemem9copy_over17h1bc3be94c024e990E+0x72>
    63e3:	48 39 f1             	cmp    rcx,rsi
    63e6:	0f 83 b2 00 00 00    	jae    649e <_ZN7safemem9copy_over17h1bc3be94c024e990E+0xde>
    63ec:	48 89 d0             	mov    rax,rdx
    63ef:	4c 01 c0             	add    rax,r8
    63f2:	0f 82 12 01 00 00    	jb     650a <_ZN7safemem9copy_over17h1bc3be94c024e990E+0x14a>
    63f8:	48 39 f0             	cmp    rax,rsi
    63fb:	0f 87 1a 01 00 00    	ja     651b <_ZN7safemem9copy_over17h1bc3be94c024e990E+0x15b>
    6401:	48 89 c8             	mov    rax,rcx
    6404:	4c 01 c0             	add    rax,r8
    6407:	0f 82 8c 01 00 00    	jb     6599 <_ZN7safemem9copy_over17h1bc3be94c024e990E+0x1d9>
    640d:	48 39 f0             	cmp    rax,rsi
    6410:	0f 87 94 01 00 00    	ja     65aa <_ZN7safemem9copy_over17h1bc3be94c024e990E+0x1ea>
    6416:	48 01 fa             	add    rdx,rdi
    6419:	48 01 f9             	add    rcx,rdi
    641c:	48 89 cf             	mov    rdi,rcx
    641f:	48 89 d6             	mov    rsi,rdx
    6422:	4c 89 c2             	mov    rdx,r8
    6425:	e8 76 dd ff ff       	call   41a0 <memmove@plt>
    642a:	48 81 c4 88 00 00 00 	add    rsp,0x88
    6431:	c3                   	ret    
    6432:	48 89 74 24 08       	mov    QWORD PTR [rsp+0x8],rsi
    6437:	48 8d 44 24 70       	lea    rax,[rsp+0x70]
    643c:	48 89 44 24 40       	mov    QWORD PTR [rsp+0x40],rax
    6441:	48 8d 05 c8 c0 01 00 	lea    rax,[rip+0x1c0c8]        # 22510 <_ZN4core3fmt3num54_$LT$impl$u20$core..fmt..Display$u20$for$u20$usize$GT$3fmt17h9c76fc85a0f85970E>
    6448:	48 89 44 24 48       	mov    QWORD PTR [rsp+0x48],rax
    644d:	48 8d 4c 24 08       	lea    rcx,[rsp+0x8]
    6452:	48 89 4c 24 50       	mov    QWORD PTR [rsp+0x50],rcx
    6457:	48 89 44 24 58       	mov    QWORD PTR [rsp+0x58],rax
    645c:	48 8d 05 fd aa 22 00 	lea    rax,[rip+0x22aafd]        # 230f60 <ref.z>
    6463:	48 89 44 24 10       	mov    QWORD PTR [rsp+0x10],rax
    6468:	48 c7 44 24 18 02 00 	mov    QWORD PTR [rsp+0x18],0x2
    646f:	00 00 
    6471:	48 c7 44 24 20 00 00 	mov    QWORD PTR [rsp+0x20],0x0
    6478:	00 00 
    647a:	48 8d 44 24 40       	lea    rax,[rsp+0x40]
    647f:	48 89 44 24 30       	mov    QWORD PTR [rsp+0x30],rax
    6484:	48 c7 44 24 38 02 00 	mov    QWORD PTR [rsp+0x38],0x2
    648b:	00 00 
    648d:	48 8d 35 ec aa 22 00 	lea    rsi,[rip+0x22aaec]        # 230f80 <ref.B>
    6494:	48 8d 7c 24 10       	lea    rdi,[rsp+0x10]
    6499:	e8 72 fb 00 00       	call   16010 <_ZN3std9panicking15begin_panic_fmt17h01bbd4a0f261f6c8E>
    649e:	48 89 74 24 08       	mov    QWORD PTR [rsp+0x8],rsi
    64a3:	48 8d 44 24 78       	lea    rax,[rsp+0x78]
    64a8:	48 89 44 24 40       	mov    QWORD PTR [rsp+0x40],rax
    64ad:	48 8d 05 5c c0 01 00 	lea    rax,[rip+0x1c05c]        # 22510 <_ZN4core3fmt3num54_$LT$impl$u20$core..fmt..Display$u20$for$u20$usize$GT$3fmt17h9c76fc85a0f85970E>
    64b4:	48 89 44 24 48       	mov    QWORD PTR [rsp+0x48],rax
    64b9:	48 8d 4c 24 08       	lea    rcx,[rsp+0x8]
    64be:	48 89 4c 24 50       	mov    QWORD PTR [rsp+0x50],rcx
    64c3:	48 89 44 24 58       	mov    QWORD PTR [rsp+0x58],rax
    64c8:	48 8d 05 c9 aa 22 00 	lea    rax,[rip+0x22aac9]        # 230f98 <ref.E>
    64cf:	48 89 44 24 10       	mov    QWORD PTR [rsp+0x10],rax
    64d4:	48 c7 44 24 18 02 00 	mov    QWORD PTR [rsp+0x18],0x2
    64db:	00 00 
    64dd:	48 c7 44 24 20 00 00 	mov    QWORD PTR [rsp+0x20],0x0
    64e4:	00 00 
    64e6:	48 8d 44 24 40       	lea    rax,[rsp+0x40]
    64eb:	48 89 44 24 30       	mov    QWORD PTR [rsp+0x30],rax
    64f0:	48 c7 44 24 38 02 00 	mov    QWORD PTR [rsp+0x38],0x2
    64f7:	00 00 
    64f9:	48 8d 35 b8 aa 22 00 	lea    rsi,[rip+0x22aab8]        # 230fb8 <ref.F>
    6500:	48 8d 7c 24 10       	lea    rdi,[rsp+0x10]
    6505:	e8 06 fb 00 00       	call   16010 <_ZN3std9panicking15begin_panic_fmt17h01bbd4a0f261f6c8E>
    650a:	48 8d 3d 3f da 01 00 	lea    rdi,[rip+0x1da3f]        # 23f50 <str.H>
    6511:	be 21 00 00 00       	mov    esi,0x21
    6516:	e8 05 84 01 00       	call   1e920 <_ZN4core6option13expect_failed17hea9c17570c15aad1E>
    651b:	48 89 74 24 08       	mov    QWORD PTR [rsp+0x8],rsi
    6520:	48 8d 84 24 80 00 00 	lea    rax,[rsp+0x80]
    6527:	00 
    6528:	48 89 44 24 10       	mov    QWORD PTR [rsp+0x10],rax
    652d:	48 8d 05 dc bf 01 00 	lea    rax,[rip+0x1bfdc]        # 22510 <_ZN4core3fmt3num54_$LT$impl$u20$core..fmt..Display$u20$for$u20$usize$GT$3fmt17h9c76fc85a0f85970E>
    6534:	48 89 44 24 18       	mov    QWORD PTR [rsp+0x18],rax
    6539:	48 8d 4c 24 70       	lea    rcx,[rsp+0x70]
    653e:	48 89 4c 24 20       	mov    QWORD PTR [rsp+0x20],rcx
    6543:	48 89 44 24 28       	mov    QWORD PTR [rsp+0x28],rax
    6548:	48 8d 4c 24 08       	lea    rcx,[rsp+0x8]
    654d:	48 89 4c 24 30       	mov    QWORD PTR [rsp+0x30],rcx
    6552:	48 89 44 24 38       	mov    QWORD PTR [rsp+0x38],rax
    6557:	48 8d 05 72 aa 22 00 	lea    rax,[rip+0x22aa72]        # 230fd0 <ref.M>
    655e:	48 89 44 24 40       	mov    QWORD PTR [rsp+0x40],rax
    6563:	48 c7 44 24 48 04 00 	mov    QWORD PTR [rsp+0x48],0x4
    656a:	00 00 
    656c:	48 c7 44 24 50 00 00 	mov    QWORD PTR [rsp+0x50],0x0
    6573:	00 00 
    6575:	48 8d 44 24 10       	lea    rax,[rsp+0x10]
    657a:	48 89 44 24 60       	mov    QWORD PTR [rsp+0x60],rax
    657f:	48 c7 44 24 68 03 00 	mov    QWORD PTR [rsp+0x68],0x3
    6586:	00 00 
    6588:	48 8d 35 81 aa 22 00 	lea    rsi,[rip+0x22aa81]        # 231010 <ref.N>
    658f:	48 8d 7c 24 40       	lea    rdi,[rsp+0x40]
    6594:	e8 77 fa 00 00       	call   16010 <_ZN3std9panicking15begin_panic_fmt17h01bbd4a0f261f6c8E>
    6599:	48 8d 3d 10 da 01 00 	lea    rdi,[rip+0x1da10]        # 23fb0 <str.P>
    65a0:	be 22 00 00 00       	mov    esi,0x22
    65a5:	e8 76 83 01 00       	call   1e920 <_ZN4core6option13expect_failed17hea9c17570c15aad1E>
    65aa:	48 89 74 24 08       	mov    QWORD PTR [rsp+0x8],rsi
    65af:	48 8d 84 24 80 00 00 	lea    rax,[rsp+0x80]
    65b6:	00 
    65b7:	48 89 44 24 10       	mov    QWORD PTR [rsp+0x10],rax
    65bc:	48 8d 05 4d bf 01 00 	lea    rax,[rip+0x1bf4d]        # 22510 <_ZN4core3fmt3num54_$LT$impl$u20$core..fmt..Display$u20$for$u20$usize$GT$3fmt17h9c76fc85a0f85970E>
    65c3:	48 89 44 24 18       	mov    QWORD PTR [rsp+0x18],rax
    65c8:	48 8d 4c 24 78       	lea    rcx,[rsp+0x78]
    65cd:	48 89 4c 24 20       	mov    QWORD PTR [rsp+0x20],rcx
    65d2:	48 89 44 24 28       	mov    QWORD PTR [rsp+0x28],rax
    65d7:	48 8d 4c 24 08       	lea    rcx,[rsp+0x8]
    65dc:	48 89 4c 24 30       	mov    QWORD PTR [rsp+0x30],rcx
    65e1:	48 89 44 24 38       	mov    QWORD PTR [rsp+0x38],rax
    65e6:	48 8d 05 e3 a9 22 00 	lea    rax,[rip+0x22a9e3]        # 230fd0 <ref.M>
    65ed:	48 89 44 24 40       	mov    QWORD PTR [rsp+0x40],rax
    65f2:	48 c7 44 24 48 04 00 	mov    QWORD PTR [rsp+0x48],0x4
    65f9:	00 00 
    65fb:	48 c7 44 24 50 00 00 	mov    QWORD PTR [rsp+0x50],0x0
    6602:	00 00 
    6604:	48 8d 44 24 10       	lea    rax,[rsp+0x10]
    6609:	48 89 44 24 60       	mov    QWORD PTR [rsp+0x60],rax
    660e:	48 c7 44 24 68 03 00 	mov    QWORD PTR [rsp+0x68],0x3
    6615:	00 00 
    6617:	48 8d 35 0a aa 22 00 	lea    rsi,[rip+0x22aa0a]        # 231028 <ref.Q>
    661e:	48 8d 7c 24 40       	lea    rdi,[rsp+0x40]
    6623:	e8 e8 f9 00 00       	call   16010 <_ZN3std9panicking15begin_panic_fmt17h01bbd4a0f261f6c8E>
    6628:	0f 1f 84 00 00 00 00 	nop    DWORD PTR [rax+rax*1+0x0]
    662f:	00 

0000000000006630 <_ZN6base649line_wrap20line_wrap_parameters17hc39e8715e86419d0E>:
    6630:	50                   	push   rax
    6631:	49 89 d1             	mov    r9,rdx
    6634:	80 f9 01             	cmp    cl,0x1
    6637:	b9 01 00 00 00       	mov    ecx,0x1
    663c:	48 83 d9 ff          	sbb    rcx,0xffffffffffffffff
    6640:	4c 39 ce             	cmp    rsi,r9
    6643:	76 55                	jbe    669a <_ZN6base649line_wrap20line_wrap_parameters17hc39e8715e86419d0E+0x6a>
    6645:	4d 85 c9             	test   r9,r9
    6648:	74 70                	je     66ba <_ZN6base649line_wrap20line_wrap_parameters17hc39e8715e86419d0E+0x8a>
    664a:	31 d2                	xor    edx,edx
    664c:	48 89 f0             	mov    rax,rsi
    664f:	49 f7 f1             	div    r9
    6652:	49 89 c0             	mov    r8,rax
    6655:	31 c0                	xor    eax,eax
    6657:	48 89 d6             	mov    rsi,rdx
    665a:	48 85 f6             	test   rsi,rsi
    665d:	0f 94 c2             	sete   dl
    6660:	49 0f 44 f1          	cmove  rsi,r9
    6664:	49 01 c9             	add    r9,rcx
    6667:	72 5d                	jb     66c6 <_ZN6base649line_wrap20line_wrap_parameters17hc39e8715e86419d0E+0x96>
    6669:	88 d0                	mov    al,dl
    666b:	49 29 c0             	sub    r8,rax
    666e:	4c 89 c0             	mov    rax,r8
    6671:	49 f7 e1             	mul    r9
    6674:	49 89 c1             	mov    r9,rax
    6677:	70 5e                	jo     66d7 <_ZN6base649line_wrap20line_wrap_parameters17hc39e8715e86419d0E+0xa7>
    6679:	4d 89 ca             	mov    r10,r9
    667c:	49 01 f2             	add    r10,rsi
    667f:	72 67                	jb     66e8 <_ZN6base649line_wrap20line_wrap_parameters17hc39e8715e86419d0E+0xb8>
    6681:	4c 89 c0             	mov    rax,r8
    6684:	48 f7 e1             	mul    rcx
    6687:	71 1c                	jno    66a5 <_ZN6base649line_wrap20line_wrap_parameters17hc39e8715e86419d0E+0x75>
    6689:	48 8d 3d c0 da 01 00 	lea    rdi,[rip+0x1dac0]        # 24150 <str.1m>
    6690:	be 27 00 00 00       	mov    esi,0x27
    6695:	e8 86 82 01 00       	call   1e920 <_ZN4core6option13expect_failed17hea9c17570c15aad1E>
    669a:	45 31 c0             	xor    r8d,r8d
    669d:	45 31 c9             	xor    r9d,r9d
    66a0:	49 89 f2             	mov    r10,rsi
    66a3:	31 c0                	xor    eax,eax
    66a5:	4c 89 07             	mov    QWORD PTR [rdi],r8
    66a8:	48 89 77 08          	mov    QWORD PTR [rdi+0x8],rsi
    66ac:	4c 89 4f 10          	mov    QWORD PTR [rdi+0x10],r9
    66b0:	4c 89 57 18          	mov    QWORD PTR [rdi+0x18],r10
    66b4:	48 89 47 20          	mov    QWORD PTR [rdi+0x20],rax
    66b8:	58                   	pop    rax
    66b9:	c3                   	ret    
    66ba:	48 8d 3d af a9 22 00 	lea    rdi,[rip+0x22a9af]        # 231070 <panic_loc.1f>
    66c1:	e8 1a 81 01 00       	call   1e7e0 <_ZN4core9panicking5panic17h7bac37468d8048c5E>
    66c6:	48 8d 3d f3 d9 01 00 	lea    rdi,[rip+0x1d9f3]        # 240c0 <str.1j>
    66cd:	be 25 00 00 00       	mov    esi,0x25
    66d2:	e8 49 82 01 00       	call   1e920 <_ZN4core6option13expect_failed17hea9c17570c15aad1E>
    66d7:	48 8d 3d 12 da 01 00 	lea    rdi,[rip+0x1da12]        # 240f0 <str.1k>
    66de:	be 2c 00 00 00       	mov    esi,0x2c
    66e3:	e8 38 82 01 00       	call   1e920 <_ZN4core6option13expect_failed17hea9c17570c15aad1E>
    66e8:	48 8d 3d 31 da 01 00 	lea    rdi,[rip+0x1da31]        # 24120 <str.1l>
    66ef:	be 2b 00 00 00       	mov    esi,0x2b
    66f4:	e8 27 82 01 00       	call   1e920 <_ZN4core6option13expect_failed17hea9c17570c15aad1E>
    66f9:	0f 1f 80 00 00 00 00 	nop    DWORD PTR [rax+0x0]

0000000000006700 <_ZN6base649line_wrap9line_wrap17hb5c0b5a7a30c92c3E>:
    6700:	55                   	push   rbp
    6701:	41 57                	push   r15
    6703:	41 56                	push   r14
    6705:	41 55                	push   r13
    6707:	41 54                	push   r12
    6709:	53                   	push   rbx
    670a:	48 81 ec b8 00 00 00 	sub    rsp,0xb8
    6711:	44 89 c3             	mov    ebx,r8d
    6714:	49 89 cd             	mov    r13,rcx
    6717:	48 89 f5             	mov    rbp,rsi
    671a:	48 89 7c 24 08       	mov    QWORD PTR [rsp+0x8],rdi
    671f:	48 8d 7c 24 40       	lea    rdi,[rsp+0x40]
    6724:	48 89 d6             	mov    rsi,rdx
    6727:	4c 89 ea             	mov    rdx,r13
    672a:	89 d9                	mov    ecx,ebx
    672c:	e8 ff fe ff ff       	call   6630 <_ZN6base649line_wrap20line_wrap_parameters17hc39e8715e86419d0E>
    6731:	48 89 ee             	mov    rsi,rbp
    6734:	48 39 74 24 58       	cmp    QWORD PTR [rsp+0x58],rsi
    6739:	0f 87 17 02 00 00    	ja     6956 <_ZN6base649line_wrap9line_wrap17hb5c0b5a7a30c92c3E+0x256>
    673f:	48 8b 6c 24 40       	mov    rbp,QWORD PTR [rsp+0x40]
    6744:	48 89 e8             	mov    rax,rbp
    6747:	49 f7 e5             	mul    r13
    674a:	0f 80 1e 02 00 00    	jo     696e <_ZN6base649line_wrap9line_wrap17hb5c0b5a7a30c92c3E+0x26e>
    6750:	4c 8b 44 24 48       	mov    r8,QWORD PTR [rsp+0x48]
    6755:	48 8b 4c 24 50       	mov    rcx,QWORD PTR [rsp+0x50]
    675a:	48 8b 7c 24 08       	mov    rdi,QWORD PTR [rsp+0x8]
    675f:	48 89 74 24 18       	mov    QWORD PTR [rsp+0x18],rsi
    6764:	48 89 c2             	mov    rdx,rax
    6767:	e8 54 fc ff ff       	call   63c0 <_ZN7safemem9copy_over17h1bc3be94c024e990E>
    676c:	48 c7 44 24 10 00 00 	mov    QWORD PTR [rsp+0x10],0x0
    6773:	00 00 
    6775:	80 fb 01             	cmp    bl,0x1
    6778:	b8 01 00 00 00       	mov    eax,0x1
    677d:	48 83 d8 ff          	sbb    rax,0xffffffffffffffff
    6781:	48 89 44 24 20       	mov    QWORD PTR [rsp+0x20],rax
    6786:	48 85 ed             	test   rbp,rbp
    6789:	0f 84 b4 00 00 00    	je     6843 <_ZN6base649line_wrap9line_wrap17hb5c0b5a7a30c92c3E+0x143>
    678f:	84 db                	test   bl,bl
    6791:	0f 84 b1 00 00 00    	je     6848 <_ZN6base649line_wrap9line_wrap17hb5c0b5a7a30c92c3E+0x148>
    6797:	48 89 6c 24 28       	mov    QWORD PTR [rsp+0x28],rbp
    679c:	48 ff cd             	dec    rbp
    679f:	45 31 ff             	xor    r15d,r15d
    67a2:	45 31 f6             	xor    r14d,r14d
    67a5:	4c 8b 4c 24 18       	mov    r9,QWORD PTR [rsp+0x18]
    67aa:	48 8b 74 24 08       	mov    rsi,QWORD PTR [rsp+0x8]
    67af:	90                   	nop
    67b0:	48 89 e8             	mov    rax,rbp
    67b3:	49 f7 e5             	mul    r13
    67b6:	48 89 c1             	mov    rcx,rax
    67b9:	0f 80 59 01 00 00    	jo     6918 <_ZN6base649line_wrap9line_wrap17hb5c0b5a7a30c92c3E+0x218>
    67bf:	48 89 e8             	mov    rax,rbp
    67c2:	48 f7 64 24 20       	mul    QWORD PTR [rsp+0x20]
    67c7:	49 89 c4             	mov    r12,rax
    67ca:	0f 80 26 01 00 00    	jo     68f6 <_ZN6base649line_wrap9line_wrap17hb5c0b5a7a30c92c3E+0x1f6>
    67d0:	49 01 cc             	add    r12,rcx
    67d3:	0f 82 1d 01 00 00    	jb     68f6 <_ZN6base649line_wrap9line_wrap17hb5c0b5a7a30c92c3E+0x1f6>
    67d9:	48 89 f7             	mov    rdi,rsi
    67dc:	4c 89 ce             	mov    rsi,r9
    67df:	48 89 ca             	mov    rdx,rcx
    67e2:	4c 89 e1             	mov    rcx,r12
    67e5:	4d 89 e8             	mov    r8,r13
    67e8:	4c 89 cb             	mov    rbx,r9
    67eb:	e8 d0 fb ff ff       	call   63c0 <_ZN7safemem9copy_over17h1bc3be94c024e990E>
    67f0:	4d 01 ec             	add    r12,r13
    67f3:	0f 82 0e 01 00 00    	jb     6907 <_ZN6base649line_wrap9line_wrap17hb5c0b5a7a30c92c3E+0x207>
    67f9:	49 39 dc             	cmp    r12,rbx
    67fc:	49 89 d9             	mov    r9,rbx
    67ff:	0f 83 24 01 00 00    	jae    6929 <_ZN6base649line_wrap9line_wrap17hb5c0b5a7a30c92c3E+0x229>
    6805:	48 8b 74 24 08       	mov    rsi,QWORD PTR [rsp+0x8]
    680a:	42 c6 04 26 0d       	mov    BYTE PTR [rsi+r12*1],0xd
    680f:	49 83 c4 01          	add    r12,0x1
    6813:	0f 82 ee 00 00 00    	jb     6907 <_ZN6base649line_wrap9line_wrap17hb5c0b5a7a30c92c3E+0x207>
    6819:	4d 39 cc             	cmp    r12,r9
    681c:	0f 83 10 01 00 00    	jae    6932 <_ZN6base649line_wrap9line_wrap17hb5c0b5a7a30c92c3E+0x232>
    6822:	49 ff c6             	inc    r14
    6825:	42 c6 04 26 0a       	mov    BYTE PTR [rsi+r12*1],0xa
    682a:	49 83 c7 02          	add    r15,0x2
    682e:	4c 89 7c 24 10       	mov    QWORD PTR [rsp+0x10],r15
    6833:	48 ff cd             	dec    rbp
    6836:	4c 3b 74 24 28       	cmp    r14,QWORD PTR [rsp+0x28]
    683b:	0f 82 6f ff ff ff    	jb     67b0 <_ZN6base649line_wrap9line_wrap17hb5c0b5a7a30c92c3E+0xb0>
    6841:	eb 7f                	jmp    68c2 <_ZN6base649line_wrap9line_wrap17hb5c0b5a7a30c92c3E+0x1c2>
    6843:	45 31 ff             	xor    r15d,r15d
    6846:	eb 7a                	jmp    68c2 <_ZN6base649line_wrap9line_wrap17hb5c0b5a7a30c92c3E+0x1c2>
    6848:	49 89 ee             	mov    r14,rbp
    684b:	4c 8d 65 ff          	lea    r12,[rbp-0x1]
    684f:	45 31 ff             	xor    r15d,r15d
    6852:	4c 8b 4c 24 18       	mov    r9,QWORD PTR [rsp+0x18]
    6857:	48 8b 74 24 08       	mov    rsi,QWORD PTR [rsp+0x8]
    685c:	0f 1f 40 00          	nop    DWORD PTR [rax+0x0]
    6860:	4c 89 e0             	mov    rax,r12
    6863:	49 f7 e5             	mul    r13
    6866:	48 89 c1             	mov    rcx,rax
    6869:	0f 80 a9 00 00 00    	jo     6918 <_ZN6base649line_wrap9line_wrap17hb5c0b5a7a30c92c3E+0x218>
    686f:	4c 89 e0             	mov    rax,r12
    6872:	48 f7 64 24 20       	mul    QWORD PTR [rsp+0x20]
    6877:	48 89 c5             	mov    rbp,rax
    687a:	70 7a                	jo     68f6 <_ZN6base649line_wrap9line_wrap17hb5c0b5a7a30c92c3E+0x1f6>
    687c:	48 01 cd             	add    rbp,rcx
    687f:	72 75                	jb     68f6 <_ZN6base649line_wrap9line_wrap17hb5c0b5a7a30c92c3E+0x1f6>
    6881:	48 89 f7             	mov    rdi,rsi
    6884:	4c 89 ce             	mov    rsi,r9
    6887:	48 89 ca             	mov    rdx,rcx
    688a:	48 89 e9             	mov    rcx,rbp
    688d:	4d 89 e8             	mov    r8,r13
    6890:	4c 89 cb             	mov    rbx,r9
    6893:	e8 28 fb ff ff       	call   63c0 <_ZN7safemem9copy_over17h1bc3be94c024e990E>
    6898:	4c 01 ed             	add    rbp,r13
    689b:	72 6a                	jb     6907 <_ZN6base649line_wrap9line_wrap17hb5c0b5a7a30c92c3E+0x207>
    689d:	48 39 dd             	cmp    rbp,rbx
    68a0:	49 89 d9             	mov    r9,rbx
    68a3:	0f 83 9b 00 00 00    	jae    6944 <_ZN6base649line_wrap9line_wrap17hb5c0b5a7a30c92c3E+0x244>
    68a9:	48 8b 74 24 08       	mov    rsi,QWORD PTR [rsp+0x8]
    68ae:	c6 04 2e 0a          	mov    BYTE PTR [rsi+rbp*1],0xa
    68b2:	49 ff c7             	inc    r15
    68b5:	4c 89 7c 24 10       	mov    QWORD PTR [rsp+0x10],r15
    68ba:	49 ff cc             	dec    r12
    68bd:	4d 39 f7             	cmp    r15,r14
    68c0:	72 9e                	jb     6860 <_ZN6base649line_wrap9line_wrap17hb5c0b5a7a30c92c3E+0x160>
    68c2:	48 8d 44 24 60       	lea    rax,[rsp+0x60]
    68c7:	48 89 44 24 30       	mov    QWORD PTR [rsp+0x30],rax
    68cc:	48 8d 44 24 10       	lea    rax,[rsp+0x10]
    68d1:	48 89 44 24 38       	mov    QWORD PTR [rsp+0x38],rax
    68d6:	4c 39 7c 24 60       	cmp    QWORD PTR [rsp+0x60],r15
    68db:	0f 85 9e 00 00 00    	jne    697f <_ZN6base649line_wrap9line_wrap17hb5c0b5a7a30c92c3E+0x27f>
    68e1:	4c 89 f8             	mov    rax,r15
    68e4:	48 81 c4 b8 00 00 00 	add    rsp,0xb8
    68eb:	5b                   	pop    rbx
    68ec:	41 5c                	pop    r12
    68ee:	41 5d                	pop    r13
    68f0:	41 5e                	pop    r14
    68f2:	41 5f                	pop    r15
    68f4:	5d                   	pop    rbp
    68f5:	c3                   	ret    
    68f6:	48 8d 3d 23 d9 01 00 	lea    rdi,[rip+0x1d923]        # 24220 <str.1s>
    68fd:	be 22 00 00 00       	mov    esi,0x22
    6902:	e8 19 80 01 00       	call   1e920 <_ZN4core6option13expect_failed17hea9c17570c15aad1E>
    6907:	48 8d 3d 42 d9 01 00 	lea    rdi,[rip+0x1d942]        # 24250 <str.1t>
    690e:	be 1f 00 00 00       	mov    esi,0x1f
    6913:	e8 08 80 01 00       	call   1e920 <_ZN4core6option13expect_failed17hea9c17570c15aad1E>
    6918:	48 8d 3d d1 d8 01 00 	lea    rdi,[rip+0x1d8d1]        # 241f0 <str.1r>
    691f:	be 22 00 00 00       	mov    esi,0x22
    6924:	e8 f7 7f 01 00       	call   1e920 <_ZN4core6option13expect_failed17hea9c17570c15aad1E>
    6929:	48 8d 3d 80 a7 22 00 	lea    rdi,[rip+0x22a780]        # 2310b0 <panic_bounds_check_loc.1u>
    6930:	eb 07                	jmp    6939 <_ZN6base649line_wrap9line_wrap17hb5c0b5a7a30c92c3E+0x239>
    6932:	48 8d 3d 8f a7 22 00 	lea    rdi,[rip+0x22a78f]        # 2310c8 <panic_bounds_check_loc.1v>
    6939:	4c 89 e6             	mov    rsi,r12
    693c:	4c 89 ca             	mov    rdx,r9
    693f:	e8 0c 7f 01 00       	call   1e850 <_ZN4core9panicking18panic_bounds_check17h8ce175fa420c7319E>
    6944:	48 8d 3d 95 a7 22 00 	lea    rdi,[rip+0x22a795]        # 2310e0 <panic_bounds_check_loc.1w>
    694b:	48 89 ee             	mov    rsi,rbp
    694e:	4c 89 ca             	mov    rdx,r9
    6951:	e8 fa 7e 01 00       	call   1e850 <_ZN4core9panicking18panic_bounds_check17h8ce175fa420c7319E>
    6956:	48 8d 3d 23 d8 01 00 	lea    rdi,[rip+0x1d823]        # 24180 <str.1p>
    695d:	48 8d 15 34 a7 22 00 	lea    rdx,[rip+0x22a734]        # 231098 <ref.1n>
    6964:	be 3c 00 00 00       	mov    esi,0x3c
    6969:	e8 32 f9 ff ff       	call   62a0 <_ZN3std9panicking11begin_panic17h079150b539280e7aE>
    696e:	48 8d 3d 4b d8 01 00 	lea    rdi,[rip+0x1d84b]        # 241c0 <str.1q>
    6975:	be 29 00 00 00       	mov    esi,0x29
    697a:	e8 a1 7f 01 00       	call   1e920 <_ZN4core6option13expect_failed17hea9c17570c15aad1E>
    697f:	48 8d 44 24 30       	lea    rax,[rsp+0x30]
    6984:	48 89 44 24 68       	mov    QWORD PTR [rsp+0x68],rax
    6989:	48 8d 05 e0 f9 ff ff 	lea    rax,[rip+0xfffffffffffff9e0]        # 6370 <_ZN53_$LT$$RF$$u27$a$u20$T$u20$as$u20$core..fmt..Debug$GT$3fmt17hc8e5102ec89dba1aE>
    6990:	48 89 44 24 70       	mov    QWORD PTR [rsp+0x70],rax
    6995:	48 8d 4c 24 38       	lea    rcx,[rsp+0x38]
    699a:	48 89 4c 24 78       	mov    QWORD PTR [rsp+0x78],rcx
    699f:	48 89 84 24 80 00 00 	mov    QWORD PTR [rsp+0x80],rax
    69a6:	00 
    69a7:	48 8d 05 92 a6 22 00 	lea    rax,[rip+0x22a692]        # 231040 <ref.12>
    69ae:	48 89 84 24 88 00 00 	mov    QWORD PTR [rsp+0x88],rax
    69b5:	00 
    69b6:	48 c7 84 24 90 00 00 	mov    QWORD PTR [rsp+0x90],0x3
    69bd:	00 03 00 00 00 
    69c2:	48 c7 84 24 98 00 00 	mov    QWORD PTR [rsp+0x98],0x0
    69c9:	00 00 00 00 00 
    69ce:	48 8d 44 24 68       	lea    rax,[rsp+0x68]
    69d3:	48 89 84 24 a8 00 00 	mov    QWORD PTR [rsp+0xa8],rax
    69da:	00 
    69db:	48 c7 84 24 b0 00 00 	mov    QWORD PTR [rsp+0xb0],0x2
    69e2:	00 02 00 00 00 
    69e7:	48 8d 35 0a a7 22 00 	lea    rsi,[rip+0x22a70a]        # 2310f8 <ref.1x>
    69ee:	48 8d bc 24 88 00 00 	lea    rdi,[rsp+0x88]
    69f5:	00 
    69f6:	e8 15 f6 00 00       	call   16010 <_ZN3std9panicking15begin_panic_fmt17h01bbd4a0f261f6c8E>
    69fb:	0f 1f 44 00 00       	nop    DWORD PTR [rax+rax*1+0x0]

0000000000006a00 <_ZN6base646encode29encode_with_padding_line_wrap17h200e5269bdac38a9E>:
    6a00:	41 57                	push   r15
    6a02:	41 56                	push   r14
    6a04:	41 54                	push   r12
    6a06:	53                   	push   rbx
    6a07:	50                   	push   rax
    6a08:	49 89 d4             	mov    r12,rdx
    6a0b:	41 80 7c 24 10 00    	cmp    BYTE PTR [r12+0x10],0x0
    6a11:	4d 89 ce             	mov    r14,r9
    6a14:	4d 89 c7             	mov    r15,r8
    6a17:	48 89 f3             	mov    rbx,rsi
    6a1a:	48 8d 05 a8 d9 01 00 	lea    rax,[rip+0x1d9a8]        # 243c9 <ref.3l>
    6a21:	4c 8d 05 61 d9 01 00 	lea    r8,[rip+0x1d961]        # 24389 <ref.3k>
    6a28:	4c 0f 44 c0          	cmove  r8,rax
    6a2c:	4c 89 fa             	mov    rdx,r15
    6a2f:	4c 89 f1             	mov    rcx,r14
    6a32:	e8 09 01 00 00       	call   6b40 <_ZN6base646encode15encode_to_slice17h9579ae4410dae3c0E>
    6a37:	49 89 c1             	mov    r9,rax
    6a3a:	41 80 7c 24 11 00    	cmp    BYTE PTR [r12+0x11],0x0
    6a40:	74 6c                	je     6aae <_ZN6base646encode29encode_with_padding_line_wrap17h200e5269bdac38a9E+0xae>
    6a42:	4d 39 f1             	cmp    r9,r14
    6a45:	0f 87 be 00 00 00    	ja     6b09 <_ZN6base646encode29encode_with_padding_line_wrap17h200e5269bdac38a9E+0x109>
    6a4b:	48 b9 ab aa aa aa aa 	movabs rcx,0xaaaaaaaaaaaaaaab
    6a52:	aa aa aa 
    6a55:	48 89 d8             	mov    rax,rbx
    6a58:	48 f7 e1             	mul    rcx
    6a5b:	48 d1 ea             	shr    rdx,1
    6a5e:	48 8d 04 52          	lea    rax,[rdx+rdx*2]
    6a62:	48 29 c3             	sub    rbx,rax
    6a65:	48 83 f3 03          	xor    rbx,0x3
    6a69:	48 89 d8             	mov    rax,rbx
    6a6c:	48 f7 e1             	mul    rcx
    6a6f:	48 d1 ea             	shr    rdx,1
    6a72:	48 8d 04 52          	lea    rax,[rdx+rdx*2]
    6a76:	48 29 c3             	sub    rbx,rax
    6a79:	74 33                	je     6aae <_ZN6base646encode29encode_with_padding_line_wrap17h200e5269bdac38a9E+0xae>
    6a7b:	4c 89 f2             	mov    rdx,r14
    6a7e:	4c 29 ca             	sub    rdx,r9
    6a81:	0f 84 8d 00 00 00    	je     6b14 <_ZN6base646encode29encode_with_padding_line_wrap17h200e5269bdac38a9E+0x114>
    6a87:	43 c6 04 0f 3d       	mov    BYTE PTR [r15+r9*1],0x3d
    6a8c:	48 83 fb 01          	cmp    rbx,0x1
    6a90:	76 25                	jbe    6ab7 <_ZN6base646encode29encode_with_padding_line_wrap17h200e5269bdac38a9E+0xb7>
    6a92:	48 83 fa 02          	cmp    rdx,0x2
    6a96:	0f 82 86 00 00 00    	jb     6b22 <_ZN6base646encode29encode_with_padding_line_wrap17h200e5269bdac38a9E+0x122>
    6a9c:	43 c6 44 0f 01 3d    	mov    BYTE PTR [r15+r9*1+0x1],0x3d
    6aa2:	b8 02 00 00 00       	mov    eax,0x2
    6aa7:	49 01 c1             	add    r9,rax
    6aaa:	73 15                	jae    6ac1 <_ZN6base646encode29encode_with_padding_line_wrap17h200e5269bdac38a9E+0xc1>
    6aac:	eb 4a                	jmp    6af8 <_ZN6base646encode29encode_with_padding_line_wrap17h200e5269bdac38a9E+0xf8>
    6aae:	31 c0                	xor    eax,eax
    6ab0:	49 01 c1             	add    r9,rax
    6ab3:	73 0c                	jae    6ac1 <_ZN6base646encode29encode_with_padding_line_wrap17h200e5269bdac38a9E+0xc1>
    6ab5:	eb 41                	jmp    6af8 <_ZN6base646encode29encode_with_padding_line_wrap17h200e5269bdac38a9E+0xf8>
    6ab7:	b8 01 00 00 00       	mov    eax,0x1
    6abc:	49 01 c1             	add    r9,rax
    6abf:	72 37                	jb     6af8 <_ZN6base646encode29encode_with_padding_line_wrap17h200e5269bdac38a9E+0xf8>
    6ac1:	41 80 3c 24 01       	cmp    BYTE PTR [r12],0x1
    6ac6:	75 24                	jne    6aec <_ZN6base646encode29encode_with_padding_line_wrap17h200e5269bdac38a9E+0xec>
    6ac8:	49 8b 4c 24 08       	mov    rcx,QWORD PTR [r12+0x8]
    6acd:	45 0f b6 44 24 01    	movzx  r8d,BYTE PTR [r12+0x1]
    6ad3:	4c 89 ff             	mov    rdi,r15
    6ad6:	4c 89 f6             	mov    rsi,r14
    6ad9:	4c 89 ca             	mov    rdx,r9
    6adc:	48 83 c4 08          	add    rsp,0x8
    6ae0:	5b                   	pop    rbx
    6ae1:	41 5c                	pop    r12
    6ae3:	41 5e                	pop    r14
    6ae5:	41 5f                	pop    r15
    6ae7:	e9 14 fc ff ff       	jmp    6700 <_ZN6base649line_wrap9line_wrap17hb5c0b5a7a30c92c3E>
    6aec:	48 83 c4 08          	add    rsp,0x8
    6af0:	5b                   	pop    rbx
    6af1:	41 5c                	pop    r12
    6af3:	41 5e                	pop    r14
    6af5:	41 5f                	pop    r15
    6af7:	c3                   	ret    
    6af8:	48 8d 3d 71 d7 01 00 	lea    rdi,[rip+0x1d771]        # 24270 <str.1z>
    6aff:	be 2a 00 00 00       	mov    esi,0x2a
    6b04:	e8 17 7e 01 00       	call   1e920 <_ZN4core6option13expect_failed17hea9c17570c15aad1E>
    6b09:	4c 89 cf             	mov    rdi,r9
    6b0c:	4c 89 f6             	mov    rsi,r14
    6b0f:	e8 dc 7e 01 00       	call   1e9f0 <_ZN4core5slice22slice_index_order_fail17hb9a50cb9e107e8b3E>
    6b14:	31 f6                	xor    esi,esi
    6b16:	48 8d 3d 8b a6 22 00 	lea    rdi,[rip+0x22a68b]        # 2311a8 <panic_bounds_check_loc.38>
    6b1d:	e8 2e 7d 01 00       	call   1e850 <_ZN4core9panicking18panic_bounds_check17h8ce175fa420c7319E>
    6b22:	be 01 00 00 00       	mov    esi,0x1
    6b27:	48 8d 3d 7a a6 22 00 	lea    rdi,[rip+0x22a67a]        # 2311a8 <panic_bounds_check_loc.38>
    6b2e:	e8 1d 7d 01 00       	call   1e850 <_ZN4core9panicking18panic_bounds_check17h8ce175fa420c7319E>
    6b33:	66 2e 0f 1f 84 00 00 	nop    WORD PTR cs:[rax+rax*1+0x0]
    6b3a:	00 00 00 
    6b3d:	0f 1f 00             	nop    DWORD PTR [rax]

0000000000006b40 <_ZN6base646encode15encode_to_slice17h9579ae4410dae3c0E>:
    6b40:	55                   	push   rbp
    6b41:	41 57                	push   r15
    6b43:	41 56                	push   r14
    6b45:	53                   	push   rbx
    6b46:	50                   	push   rax
    6b47:	49 89 d1             	mov    r9,rdx
    6b4a:	49 89 f2             	mov    r10,rsi
    6b4d:	45 31 ff             	xor    r15d,r15d
    6b50:	4d 89 d6             	mov    r14,r10
    6b53:	49 83 ee 1a          	sub    r14,0x1a
    6b57:	0f 82 d4 02 00 00    	jb     6e31 <_ZN6base646encode15encode_to_slice17h9579ae4410dae3c0E+0x2f1>
    6b5d:	4d 85 f6             	test   r14,r14
    6b60:	41 bb 00 00 00 00    	mov    r11d,0x0
    6b66:	0f 84 c8 02 00 00    	je     6e34 <_ZN6base646encode15encode_to_slice17h9579ae4410dae3c0E+0x2f4>
    6b6c:	45 31 db             	xor    r11d,r11d
    6b6f:	41 bf 20 00 00 00    	mov    r15d,0x20
    6b75:	66 66 2e 0f 1f 84 00 	data16 nop WORD PTR cs:[rax+rax*1+0x0]
    6b7c:	00 00 00 00 
    6b80:	49 8d 43 1a          	lea    rax,[r11+0x1a]
    6b84:	4c 39 d0             	cmp    rax,r10
    6b87:	0f 87 59 04 00 00    	ja     6fe6 <_ZN6base646encode15encode_to_slice17h9579ae4410dae3c0E+0x4a6>
    6b8d:	4d 85 ff             	test   r15,r15
    6b90:	0f 84 5b 04 00 00    	je     6ff1 <_ZN6base646encode15encode_to_slice17h9579ae4410dae3c0E+0x4b1>
    6b96:	49 39 cf             	cmp    r15,rcx
    6b99:	0f 87 8c 04 00 00    	ja     702b <_ZN6base646encode15encode_to_slice17h9579ae4410dae3c0E+0x4eb>
    6b9f:	4a 8b 04 1f          	mov    rax,QWORD PTR [rdi+r11*1]
    6ba3:	48 0f c8             	bswap  rax
    6ba6:	48 89 c6             	mov    rsi,rax
    6ba9:	48 c1 ee 3a          	shr    rsi,0x3a
    6bad:	41 0f b6 14 30       	movzx  edx,BYTE PTR [r8+rsi*1]
    6bb2:	43 88 54 39 e0       	mov    BYTE PTR [r9+r15*1-0x20],dl
    6bb7:	48 89 c2             	mov    rdx,rax
    6bba:	48 c1 ea 34          	shr    rdx,0x34
    6bbe:	83 e2 3f             	and    edx,0x3f
    6bc1:	41 0f b6 14 10       	movzx  edx,BYTE PTR [r8+rdx*1]
    6bc6:	43 88 54 39 e1       	mov    BYTE PTR [r9+r15*1-0x1f],dl
    6bcb:	48 89 c2             	mov    rdx,rax
    6bce:	48 c1 ea 2e          	shr    rdx,0x2e
    6bd2:	83 e2 3f             	and    edx,0x3f
    6bd5:	41 0f b6 14 10       	movzx  edx,BYTE PTR [r8+rdx*1]
    6bda:	43 88 54 39 e2       	mov    BYTE PTR [r9+r15*1-0x1e],dl
    6bdf:	48 89 c2             	mov    rdx,rax
    6be2:	48 c1 ea 28          	shr    rdx,0x28
    6be6:	83 e2 3f             	and    edx,0x3f
    6be9:	41 0f b6 14 10       	movzx  edx,BYTE PTR [r8+rdx*1]
    6bee:	43 88 54 39 e3       	mov    BYTE PTR [r9+r15*1-0x1d],dl
    6bf3:	48 89 c2             	mov    rdx,rax
    6bf6:	48 c1 ea 22          	shr    rdx,0x22
    6bfa:	83 e2 3f             	and    edx,0x3f
    6bfd:	41 0f b6 14 10       	movzx  edx,BYTE PTR [r8+rdx*1]
    6c02:	43 88 54 39 e4       	mov    BYTE PTR [r9+r15*1-0x1c],dl
    6c07:	48 89 c2             	mov    rdx,rax
    6c0a:	48 c1 ea 1c          	shr    rdx,0x1c
    6c0e:	83 e2 3f             	and    edx,0x3f
    6c11:	41 0f b6 14 10       	movzx  edx,BYTE PTR [r8+rdx*1]
    6c16:	43 88 54 39 e5       	mov    BYTE PTR [r9+r15*1-0x1b],dl
    6c1b:	89 c2                	mov    edx,eax
    6c1d:	c1 ea 16             	shr    edx,0x16
    6c20:	83 e2 3f             	and    edx,0x3f
    6c23:	41 0f b6 14 10       	movzx  edx,BYTE PTR [r8+rdx*1]
    6c28:	43 88 54 39 e6       	mov    BYTE PTR [r9+r15*1-0x1a],dl
    6c2d:	c1 e8 10             	shr    eax,0x10
    6c30:	83 e0 3f             	and    eax,0x3f
    6c33:	41 0f b6 04 00       	movzx  eax,BYTE PTR [r8+rax*1]
    6c38:	43 88 44 39 e7       	mov    BYTE PTR [r9+r15*1-0x19],al
    6c3d:	4a 8b 44 1f 06       	mov    rax,QWORD PTR [rdi+r11*1+0x6]
    6c42:	48 0f c8             	bswap  rax
    6c45:	48 89 c2             	mov    rdx,rax
    6c48:	48 c1 ea 3a          	shr    rdx,0x3a
    6c4c:	41 0f b6 14 10       	movzx  edx,BYTE PTR [r8+rdx*1]
    6c51:	43 88 54 39 e8       	mov    BYTE PTR [r9+r15*1-0x18],dl
    6c56:	48 89 c2             	mov    rdx,rax
    6c59:	48 c1 ea 34          	shr    rdx,0x34
    6c5d:	83 e2 3f             	and    edx,0x3f
    6c60:	41 0f b6 14 10       	movzx  edx,BYTE PTR [r8+rdx*1]
    6c65:	43 88 54 39 e9       	mov    BYTE PTR [r9+r15*1-0x17],dl
    6c6a:	48 89 c2             	mov    rdx,rax
    6c6d:	48 c1 ea 2e          	shr    rdx,0x2e
    6c71:	83 e2 3f             	and    edx,0x3f
    6c74:	41 0f b6 14 10       	movzx  edx,BYTE PTR [r8+rdx*1]
    6c79:	43 88 54 39 ea       	mov    BYTE PTR [r9+r15*1-0x16],dl
    6c7e:	48 89 c2             	mov    rdx,rax
    6c81:	48 c1 ea 28          	shr    rdx,0x28
    6c85:	83 e2 3f             	and    edx,0x3f
    6c88:	41 0f b6 14 10       	movzx  edx,BYTE PTR [r8+rdx*1]
    6c8d:	43 88 54 39 eb       	mov    BYTE PTR [r9+r15*1-0x15],dl
    6c92:	48 89 c2             	mov    rdx,rax
    6c95:	48 c1 ea 22          	shr    rdx,0x22
    6c99:	83 e2 3f             	and    edx,0x3f
    6c9c:	41 0f b6 14 10       	movzx  edx,BYTE PTR [r8+rdx*1]
    6ca1:	43 88 54 39 ec       	mov    BYTE PTR [r9+r15*1-0x14],dl
    6ca6:	48 89 c2             	mov    rdx,rax
    6ca9:	48 c1 ea 1c          	shr    rdx,0x1c
    6cad:	83 e2 3f             	and    edx,0x3f
    6cb0:	41 0f b6 14 10       	movzx  edx,BYTE PTR [r8+rdx*1]
    6cb5:	43 88 54 39 ed       	mov    BYTE PTR [r9+r15*1-0x13],dl
    6cba:	89 c2                	mov    edx,eax
    6cbc:	c1 ea 16             	shr    edx,0x16
    6cbf:	83 e2 3f             	and    edx,0x3f
    6cc2:	41 0f b6 14 10       	movzx  edx,BYTE PTR [r8+rdx*1]
    6cc7:	43 88 54 39 ee       	mov    BYTE PTR [r9+r15*1-0x12],dl
    6ccc:	c1 e8 10             	shr    eax,0x10
    6ccf:	83 e0 3f             	and    eax,0x3f
    6cd2:	41 0f b6 04 00       	movzx  eax,BYTE PTR [r8+rax*1]
    6cd7:	43 88 44 39 ef       	mov    BYTE PTR [r9+r15*1-0x11],al
    6cdc:	4a 8b 44 1f 0c       	mov    rax,QWORD PTR [rdi+r11*1+0xc]
    6ce1:	48 0f c8             	bswap  rax
    6ce4:	48 89 c2             	mov    rdx,rax
    6ce7:	48 c1 ea 3a          	shr    rdx,0x3a
    6ceb:	41 0f b6 14 10       	movzx  edx,BYTE PTR [r8+rdx*1]
    6cf0:	43 88 54 39 f0       	mov    BYTE PTR [r9+r15*1-0x10],dl
    6cf5:	48 89 c2             	mov    rdx,rax
    6cf8:	48 c1 ea 34          	shr    rdx,0x34
    6cfc:	83 e2 3f             	and    edx,0x3f
    6cff:	41 0f b6 14 10       	movzx  edx,BYTE PTR [r8+rdx*1]
    6d04:	43 88 54 39 f1       	mov    BYTE PTR [r9+r15*1-0xf],dl
    6d09:	48 89 c2             	mov    rdx,rax
    6d0c:	48 c1 ea 2e          	shr    rdx,0x2e
    6d10:	83 e2 3f             	and    edx,0x3f
    6d13:	41 0f b6 14 10       	movzx  edx,BYTE PTR [r8+rdx*1]
    6d18:	43 88 54 39 f2       	mov    BYTE PTR [r9+r15*1-0xe],dl
    6d1d:	48 89 c2             	mov    rdx,rax
    6d20:	48 c1 ea 28          	shr    rdx,0x28
    6d24:	83 e2 3f             	and    edx,0x3f
    6d27:	41 0f b6 14 10       	movzx  edx,BYTE PTR [r8+rdx*1]
    6d2c:	43 88 54 39 f3       	mov    BYTE PTR [r9+r15*1-0xd],dl
    6d31:	48 89 c2             	mov    rdx,rax
    6d34:	48 c1 ea 22          	shr    rdx,0x22
    6d38:	83 e2 3f             	and    edx,0x3f
    6d3b:	41 0f b6 14 10       	movzx  edx,BYTE PTR [r8+rdx*1]
    6d40:	43 88 54 39 f4       	mov    BYTE PTR [r9+r15*1-0xc],dl
    6d45:	48 89 c2             	mov    rdx,rax
    6d48:	48 c1 ea 1c          	shr    rdx,0x1c
    6d4c:	83 e2 3f             	and    edx,0x3f
    6d4f:	41 0f b6 14 10       	movzx  edx,BYTE PTR [r8+rdx*1]
    6d54:	43 88 54 39 f5       	mov    BYTE PTR [r9+r15*1-0xb],dl
    6d59:	89 c2                	mov    edx,eax
    6d5b:	c1 ea 16             	shr    edx,0x16
    6d5e:	83 e2 3f             	and    edx,0x3f
    6d61:	41 0f b6 14 10       	movzx  edx,BYTE PTR [r8+rdx*1]
    6d66:	43 88 54 39 f6       	mov    BYTE PTR [r9+r15*1-0xa],dl
    6d6b:	c1 e8 10             	shr    eax,0x10
    6d6e:	83 e0 3f             	and    eax,0x3f
    6d71:	41 0f b6 04 00       	movzx  eax,BYTE PTR [r8+rax*1]
    6d76:	43 88 44 39 f7       	mov    BYTE PTR [r9+r15*1-0x9],al
    6d7b:	4a 8b 44 1f 12       	mov    rax,QWORD PTR [rdi+r11*1+0x12]
    6d80:	48 0f c8             	bswap  rax
    6d83:	48 89 c2             	mov    rdx,rax
    6d86:	48 c1 ea 3a          	shr    rdx,0x3a
    6d8a:	41 0f b6 14 10       	movzx  edx,BYTE PTR [r8+rdx*1]
    6d8f:	43 88 54 39 f8       	mov    BYTE PTR [r9+r15*1-0x8],dl
    6d94:	48 89 c2             	mov    rdx,rax
    6d97:	48 c1 ea 34          	shr    rdx,0x34
    6d9b:	83 e2 3f             	and    edx,0x3f
    6d9e:	41 0f b6 14 10       	movzx  edx,BYTE PTR [r8+rdx*1]
    6da3:	43 88 54 39 f9       	mov    BYTE PTR [r9+r15*1-0x7],dl
    6da8:	48 89 c2             	mov    rdx,rax
    6dab:	48 c1 ea 2e          	shr    rdx,0x2e
    6daf:	83 e2 3f             	and    edx,0x3f
    6db2:	41 0f b6 14 10       	movzx  edx,BYTE PTR [r8+rdx*1]
    6db7:	43 88 54 39 fa       	mov    BYTE PTR [r9+r15*1-0x6],dl
    6dbc:	48 89 c2             	mov    rdx,rax
    6dbf:	48 c1 ea 28          	shr    rdx,0x28
    6dc3:	83 e2 3f             	and    edx,0x3f
    6dc6:	41 0f b6 14 10       	movzx  edx,BYTE PTR [r8+rdx*1]
    6dcb:	43 88 54 39 fb       	mov    BYTE PTR [r9+r15*1-0x5],dl
    6dd0:	48 89 c2             	mov    rdx,rax
    6dd3:	48 c1 ea 22          	shr    rdx,0x22
    6dd7:	83 e2 3f             	and    edx,0x3f
    6dda:	41 0f b6 14 10       	movzx  edx,BYTE PTR [r8+rdx*1]
    6ddf:	43 88 54 39 fc       	mov    BYTE PTR [r9+r15*1-0x4],dl
    6de4:	48 89 c2             	mov    rdx,rax
    6de7:	48 c1 ea 1c          	shr    rdx,0x1c
    6deb:	83 e2 3f             	and    edx,0x3f
    6dee:	41 0f b6 14 10       	movzx  edx,BYTE PTR [r8+rdx*1]
    6df3:	43 88 54 39 fd       	mov    BYTE PTR [r9+r15*1-0x3],dl
    6df8:	89 c2                	mov    edx,eax
    6dfa:	c1 ea 16             	shr    edx,0x16
    6dfd:	83 e2 3f             	and    edx,0x3f
    6e00:	41 0f b6 14 10       	movzx  edx,BYTE PTR [r8+rdx*1]
    6e05:	43 88 54 39 fe       	mov    BYTE PTR [r9+r15*1-0x2],dl
    6e0a:	c1 e8 10             	shr    eax,0x10
    6e0d:	83 e0 3f             	and    eax,0x3f
    6e10:	41 0f b6 04 00       	movzx  eax,BYTE PTR [r8+rax*1]
    6e15:	43 88 44 39 ff       	mov    BYTE PTR [r9+r15*1-0x1],al
    6e1a:	49 83 c3 18          	add    r11,0x18
    6e1e:	49 83 c7 20          	add    r15,0x20
    6e22:	4d 39 f3             	cmp    r11,r14
    6e25:	0f 86 55 fd ff ff    	jbe    6b80 <_ZN6base646encode15encode_to_slice17h9579ae4410dae3c0E+0x40>
    6e2b:	49 83 c7 e0          	add    r15,0xffffffffffffffe0
    6e2f:	eb 03                	jmp    6e34 <_ZN6base646encode15encode_to_slice17h9579ae4410dae3c0E+0x2f4>
    6e31:	45 31 db             	xor    r11d,r11d
    6e34:	48 ba ab aa aa aa aa 	movabs rdx,0xaaaaaaaaaaaaaaab
    6e3b:	aa aa aa 
    6e3e:	4c 89 d0             	mov    rax,r10
    6e41:	48 f7 e2             	mul    rdx
    6e44:	48 d1 ea             	shr    rdx,1
    6e47:	48 8d 34 52          	lea    rsi,[rdx+rdx*2]
    6e4b:	49 39 f3             	cmp    r11,rsi
    6e4e:	0f 83 b1 00 00 00    	jae    6f05 <_ZN6base646encode15encode_to_slice17h9579ae4410dae3c0E+0x3c5>
    6e54:	66 66 66 2e 0f 1f 84 	data16 data16 nop WORD PTR cs:[rax+rax*1+0x0]
    6e5b:	00 00 00 00 00 
    6e60:	49 83 fb fd          	cmp    r11,0xfffffffffffffffd
    6e64:	0f 83 96 01 00 00    	jae    7000 <_ZN6base646encode15encode_to_slice17h9579ae4410dae3c0E+0x4c0>
    6e6a:	4d 8d 73 03          	lea    r14,[r11+0x3]
    6e6e:	4d 39 d6             	cmp    r14,r10
    6e71:	0f 87 95 01 00 00    	ja     700c <_ZN6base646encode15encode_to_slice17h9579ae4410dae3c0E+0x4cc>
    6e77:	49 83 ff fc          	cmp    r15,0xfffffffffffffffc
    6e7b:	0f 83 9a 01 00 00    	jae    701b <_ZN6base646encode15encode_to_slice17h9579ae4410dae3c0E+0x4db>
    6e81:	49 8d 47 04          	lea    rax,[r15+0x4]
    6e85:	48 39 c8             	cmp    rax,rcx
    6e88:	0f 87 99 01 00 00    	ja     7027 <_ZN6base646encode15encode_to_slice17h9579ae4410dae3c0E+0x4e7>
    6e8e:	42 0f b6 1c 1f       	movzx  ebx,BYTE PTR [rdi+r11*1]
    6e93:	89 da                	mov    edx,ebx
    6e95:	c0 ea 02             	shr    dl,0x2
    6e98:	0f b6 d2             	movzx  edx,dl
    6e9b:	41 0f b6 14 10       	movzx  edx,BYTE PTR [r8+rdx*1]
    6ea0:	43 88 14 39          	mov    BYTE PTR [r9+r15*1],dl
    6ea4:	c0 e3 04             	shl    bl,0x4
    6ea7:	80 e3 30             	and    bl,0x30
    6eaa:	42 0f b6 6c 1f 01    	movzx  ebp,BYTE PTR [rdi+r11*1+0x1]
    6eb0:	89 ea                	mov    edx,ebp
    6eb2:	c0 ea 04             	shr    dl,0x4
    6eb5:	08 da                	or     dl,bl
    6eb7:	0f b6 d2             	movzx  edx,dl
    6eba:	41 0f b6 14 10       	movzx  edx,BYTE PTR [r8+rdx*1]
    6ebf:	43 88 54 39 01       	mov    BYTE PTR [r9+r15*1+0x1],dl
    6ec4:	40 c0 e5 02          	shl    bpl,0x2
    6ec8:	40 80 e5 3c          	and    bpl,0x3c
    6ecc:	42 0f b6 54 1f 02    	movzx  edx,BYTE PTR [rdi+r11*1+0x2]
    6ed2:	89 d3                	mov    ebx,edx
    6ed4:	c0 eb 06             	shr    bl,0x6
    6ed7:	40 08 eb             	or     bl,bpl
    6eda:	0f b6 eb             	movzx  ebp,bl
    6edd:	41 0f b6 1c 28       	movzx  ebx,BYTE PTR [r8+rbp*1]
    6ee2:	43 88 5c 39 02       	mov    BYTE PTR [r9+r15*1+0x2],bl
    6ee7:	83 e2 3f             	and    edx,0x3f
    6eea:	41 0f b6 14 10       	movzx  edx,BYTE PTR [r8+rdx*1]
    6eef:	43 88 54 39 03       	mov    BYTE PTR [r9+r15*1+0x3],dl
    6ef4:	49 39 f6             	cmp    r14,rsi
    6ef7:	4d 89 f3             	mov    r11,r14
    6efa:	49 89 c7             	mov    r15,rax
    6efd:	0f 82 5d ff ff ff    	jb     6e60 <_ZN6base646encode15encode_to_slice17h9579ae4410dae3c0E+0x320>
    6f03:	eb 03                	jmp    6f08 <_ZN6base646encode15encode_to_slice17h9579ae4410dae3c0E+0x3c8>
    6f05:	4c 89 f8             	mov    rax,r15
    6f08:	4c 89 d2             	mov    rdx,r10
    6f0b:	48 29 f2             	sub    rdx,rsi
    6f0e:	80 e2 03             	and    dl,0x3
    6f11:	80 fa 01             	cmp    dl,0x1
    6f14:	74 6f                	je     6f85 <_ZN6base646encode15encode_to_slice17h9579ae4410dae3c0E+0x445>
    6f16:	80 fa 02             	cmp    dl,0x2
    6f19:	0f 85 bc 00 00 00    	jne    6fdb <_ZN6base646encode15encode_to_slice17h9579ae4410dae3c0E+0x49b>
    6f1f:	4c 39 d6             	cmp    rsi,r10
    6f22:	0f 83 1d 01 00 00    	jae    7045 <_ZN6base646encode15encode_to_slice17h9579ae4410dae3c0E+0x505>
    6f28:	48 39 c8             	cmp    rax,rcx
    6f2b:	0f 83 23 01 00 00    	jae    7054 <_ZN6base646encode15encode_to_slice17h9579ae4410dae3c0E+0x514>
    6f31:	44 8a 1c 37          	mov    r11b,BYTE PTR [rdi+rsi*1]
    6f35:	44 89 da             	mov    edx,r11d
    6f38:	c0 ea 02             	shr    dl,0x2
    6f3b:	0f b6 d2             	movzx  edx,dl
    6f3e:	41 8a 14 10          	mov    dl,BYTE PTR [r8+rdx*1]
    6f42:	41 88 14 01          	mov    BYTE PTR [r9+rax*1],dl
    6f46:	48 ff c6             	inc    rsi
    6f49:	4c 39 d6             	cmp    rsi,r10
    6f4c:	0f 83 0b 01 00 00    	jae    705d <_ZN6base646encode15encode_to_slice17h9579ae4410dae3c0E+0x51d>
    6f52:	4c 8d 70 01          	lea    r14,[rax+0x1]
    6f56:	49 39 ce             	cmp    r14,rcx
    6f59:	0f 83 0d 01 00 00    	jae    706c <_ZN6base646encode15encode_to_slice17h9579ae4410dae3c0E+0x52c>
    6f5f:	41 c0 e3 04          	shl    r11b,0x4
    6f63:	41 80 e3 30          	and    r11b,0x30
    6f67:	8a 1c 37             	mov    bl,BYTE PTR [rdi+rsi*1]
    6f6a:	89 da                	mov    edx,ebx
    6f6c:	c0 ea 04             	shr    dl,0x4
    6f6f:	44 08 da             	or     dl,r11b
    6f72:	41 b3 3c             	mov    r11b,0x3c
    6f75:	40 b7 02             	mov    dil,0x2
    6f78:	41 ba 03 00 00 00    	mov    r10d,0x3
    6f7e:	be 02 00 00 00       	mov    esi,0x2
    6f83:	eb 2e                	jmp    6fb3 <_ZN6base646encode15encode_to_slice17h9579ae4410dae3c0E+0x473>
    6f85:	4c 39 d6             	cmp    rsi,r10
    6f88:	0f 83 f0 00 00 00    	jae    707e <_ZN6base646encode15encode_to_slice17h9579ae4410dae3c0E+0x53e>
    6f8e:	48 39 c8             	cmp    rax,rcx
    6f91:	0f 83 f6 00 00 00    	jae    708d <_ZN6base646encode15encode_to_slice17h9579ae4410dae3c0E+0x54d>
    6f97:	8a 1c 37             	mov    bl,BYTE PTR [rdi+rsi*1]
    6f9a:	89 da                	mov    edx,ebx
    6f9c:	c0 ea 02             	shr    dl,0x2
    6f9f:	41 b3 30             	mov    r11b,0x30
    6fa2:	40 b7 04             	mov    dil,0x4
    6fa5:	41 ba 02 00 00 00    	mov    r10d,0x2
    6fab:	be 01 00 00 00       	mov    esi,0x1
    6fb0:	49 89 c6             	mov    r14,rax
    6fb3:	0f b6 d2             	movzx  edx,dl
    6fb6:	41 8a 14 10          	mov    dl,BYTE PTR [r8+rdx*1]
    6fba:	43 88 14 31          	mov    BYTE PTR [r9+r14*1],dl
    6fbe:	48 01 c6             	add    rsi,rax
    6fc1:	48 39 ce             	cmp    rsi,rcx
    6fc4:	73 70                	jae    7036 <_ZN6base646encode15encode_to_slice17h9579ae4410dae3c0E+0x4f6>
    6fc6:	89 f9                	mov    ecx,edi
    6fc8:	d2 e3                	shl    bl,cl
    6fca:	44 20 db             	and    bl,r11b
    6fcd:	0f b6 cb             	movzx  ecx,bl
    6fd0:	41 8a 0c 08          	mov    cl,BYTE PTR [r8+rcx*1]
    6fd4:	41 88 0c 31          	mov    BYTE PTR [r9+rsi*1],cl
    6fd8:	4c 01 d0             	add    rax,r10
    6fdb:	48 83 c4 08          	add    rsp,0x8
    6fdf:	5b                   	pop    rbx
    6fe0:	41 5e                	pop    r14
    6fe2:	41 5f                	pop    r15
    6fe4:	5d                   	pop    rbp
    6fe5:	c3                   	ret    
    6fe6:	48 89 c7             	mov    rdi,rax
    6fe9:	4c 89 d6             	mov    rsi,r10
    6fec:	e8 8f 79 01 00       	call   1e980 <_ZN4core5slice20slice_index_len_fail17hbe9a58121bca4535E>
    6ff1:	48 c7 c7 e0 ff ff ff 	mov    rdi,0xffffffffffffffe0
    6ff8:	4c 89 fe             	mov    rsi,r15
    6ffb:	e8 f0 79 01 00       	call   1e9f0 <_ZN4core5slice22slice_index_order_fail17hb9a50cb9e107e8b3E>
    7000:	49 8d 73 03          	lea    rsi,[r11+0x3]
    7004:	4c 89 df             	mov    rdi,r11
    7007:	e8 e4 79 01 00       	call   1e9f0 <_ZN4core5slice22slice_index_order_fail17hb9a50cb9e107e8b3E>
    700c:	49 83 c3 03          	add    r11,0x3
    7010:	4c 89 df             	mov    rdi,r11
    7013:	4c 89 d6             	mov    rsi,r10
    7016:	e8 65 79 01 00       	call   1e980 <_ZN4core5slice20slice_index_len_fail17hbe9a58121bca4535E>
    701b:	49 8d 77 04          	lea    rsi,[r15+0x4]
    701f:	4c 89 ff             	mov    rdi,r15
    7022:	e8 c9 79 01 00       	call   1e9f0 <_ZN4core5slice22slice_index_order_fail17hb9a50cb9e107e8b3E>
    7027:	49 83 c7 04          	add    r15,0x4
    702b:	4c 89 ff             	mov    rdi,r15
    702e:	48 89 ce             	mov    rsi,rcx
    7031:	e8 4a 79 01 00       	call   1e980 <_ZN4core5slice20slice_index_len_fail17hbe9a58121bca4535E>
    7036:	48 8d 3d 0b 9f 22 00 	lea    rdi,[rip+0x229f0b]        # 230f48 <panic_bounds_check_loc.w>
    703d:	48 89 ca             	mov    rdx,rcx
    7040:	e8 0b 78 01 00       	call   1e850 <_ZN4core9panicking18panic_bounds_check17h8ce175fa420c7319E>
    7045:	48 8d 3d c4 a0 22 00 	lea    rdi,[rip+0x22a0c4]        # 231110 <panic_bounds_check_loc.2R>
    704c:	4c 89 d2             	mov    rdx,r10
    704f:	e8 fc 77 01 00       	call   1e850 <_ZN4core9panicking18panic_bounds_check17h8ce175fa420c7319E>
    7054:	48 8d 3d cd a0 22 00 	lea    rdi,[rip+0x22a0cd]        # 231128 <panic_bounds_check_loc.2T>
    705b:	eb 37                	jmp    7094 <_ZN6base646encode15encode_to_slice17h9579ae4410dae3c0E+0x554>
    705d:	48 8d 3d cc 9e 22 00 	lea    rdi,[rip+0x229ecc]        # 230f30 <panic_bounds_check_loc.v>
    7064:	4c 89 d2             	mov    rdx,r10
    7067:	e8 e4 77 01 00       	call   1e850 <_ZN4core9panicking18panic_bounds_check17h8ce175fa420c7319E>
    706c:	48 8d 3d d5 9e 22 00 	lea    rdi,[rip+0x229ed5]        # 230f48 <panic_bounds_check_loc.w>
    7073:	4c 89 f6             	mov    rsi,r14
    7076:	48 89 ca             	mov    rdx,rcx
    7079:	e8 d2 77 01 00       	call   1e850 <_ZN4core9panicking18panic_bounds_check17h8ce175fa420c7319E>
    707e:	48 8d 3d bb a0 22 00 	lea    rdi,[rip+0x22a0bb]        # 231140 <panic_bounds_check_loc.2X>
    7085:	4c 89 d2             	mov    rdx,r10
    7088:	e8 c3 77 01 00       	call   1e850 <_ZN4core9panicking18panic_bounds_check17h8ce175fa420c7319E>
    708d:	48 8d 3d c4 a0 22 00 	lea    rdi,[rip+0x22a0c4]        # 231158 <panic_bounds_check_loc.2Z>
    7094:	48 89 c6             	mov    rsi,rax
    7097:	48 89 ca             	mov    rdx,rcx
    709a:	e8 b1 77 01 00       	call   1e850 <_ZN4core9panicking18panic_bounds_check17h8ce175fa420c7319E>
    709f:	90                   	nop

00000000000070a0 <_ZN6base646encode12encoded_size17h43525f70931340cdE>:
    70a0:	53                   	push   rbx
    70a1:	48 83 ec 40          	sub    rsp,0x40
    70a5:	49 89 d0             	mov    r8,rdx
    70a8:	48 89 fb             	mov    rbx,rdi
    70ab:	48 ba ab aa aa aa aa 	movabs rdx,0xaaaaaaaaaaaaaaab
    70b2:	aa aa aa 
    70b5:	48 89 f0             	mov    rax,rsi
    70b8:	48 f7 e2             	mul    rdx
    70bb:	48 d1 ea             	shr    rdx,1
    70be:	48 8d 3c 52          	lea    rdi,[rdx+rdx*2]
    70c2:	b9 04 00 00 00       	mov    ecx,0x4
    70c7:	48 89 d0             	mov    rax,rdx
    70ca:	48 f7 e1             	mul    rcx
    70cd:	0f 90 c2             	seto   dl
    70d0:	48 29 fe             	sub    rsi,rdi
    70d3:	74 13                	je     70e8 <_ZN6base646encode12encoded_size17h43525f70931340cdE+0x48>
    70d5:	41 80 78 11 00       	cmp    BYTE PTR [r8+0x11],0x0
    70da:	74 12                	je     70ee <_ZN6base646encode12encoded_size17h43525f70931340cdE+0x4e>
    70dc:	84 d2                	test   dl,dl
    70de:	75 37                	jne    7117 <_ZN6base646encode12encoded_size17h43525f70931340cdE+0x77>
    70e0:	48 83 c0 04          	add    rax,0x4
    70e4:	72 31                	jb     7117 <_ZN6base646encode12encoded_size17h43525f70931340cdE+0x77>
    70e6:	eb 38                	jmp    7120 <_ZN6base646encode12encoded_size17h43525f70931340cdE+0x80>
    70e8:	84 d2                	test   dl,dl
    70ea:	75 2b                	jne    7117 <_ZN6base646encode12encoded_size17h43525f70931340cdE+0x77>
    70ec:	eb 32                	jmp    7120 <_ZN6base646encode12encoded_size17h43525f70931340cdE+0x80>
    70ee:	40 80 e6 03          	and    sil,0x3
    70f2:	40 80 fe 01          	cmp    sil,0x1
    70f6:	74 11                	je     7109 <_ZN6base646encode12encoded_size17h43525f70931340cdE+0x69>
    70f8:	40 80 fe 02          	cmp    sil,0x2
    70fc:	75 55                	jne    7153 <_ZN6base646encode12encoded_size17h43525f70931340cdE+0xb3>
    70fe:	be 03 00 00 00       	mov    esi,0x3
    7103:	84 d2                	test   dl,dl
    7105:	74 0b                	je     7112 <_ZN6base646encode12encoded_size17h43525f70931340cdE+0x72>
    7107:	eb 0e                	jmp    7117 <_ZN6base646encode12encoded_size17h43525f70931340cdE+0x77>
    7109:	be 02 00 00 00       	mov    esi,0x2
    710e:	84 d2                	test   dl,dl
    7110:	75 05                	jne    7117 <_ZN6base646encode12encoded_size17h43525f70931340cdE+0x77>
    7112:	48 01 f0             	add    rax,rsi
    7115:	73 09                	jae    7120 <_ZN6base646encode12encoded_size17h43525f70931340cdE+0x80>
    7117:	48 c7 03 00 00 00 00 	mov    QWORD PTR [rbx],0x0
    711e:	eb 2a                	jmp    714a <_ZN6base646encode12encoded_size17h43525f70931340cdE+0xaa>
    7120:	41 80 38 00          	cmp    BYTE PTR [r8],0x0
    7124:	74 19                	je     713f <_ZN6base646encode12encoded_size17h43525f70931340cdE+0x9f>
    7126:	49 8b 50 08          	mov    rdx,QWORD PTR [r8+0x8]
    712a:	41 0f b6 48 01       	movzx  ecx,BYTE PTR [r8+0x1]
    712f:	48 89 e7             	mov    rdi,rsp
    7132:	48 89 c6             	mov    rsi,rax
    7135:	e8 f6 f4 ff ff       	call   6630 <_ZN6base649line_wrap20line_wrap_parameters17hc39e8715e86419d0E>
    713a:	48 8b 44 24 18       	mov    rax,QWORD PTR [rsp+0x18]
    713f:	48 c7 03 01 00 00 00 	mov    QWORD PTR [rbx],0x1
    7146:	48 89 43 08          	mov    QWORD PTR [rbx+0x8],rax
    714a:	48 89 d8             	mov    rax,rbx
    714d:	48 83 c4 40          	add    rsp,0x40
    7151:	5b                   	pop    rbx
    7152:	c3                   	ret    
    7153:	48 8d 05 26 f2 ff ff 	lea    rax,[rip+0xfffffffffffff226]        # 6380 <_ZN55_$LT$$RF$$u27$a$u20$T$u20$as$u20$core..fmt..Display$GT$3fmt17h2d097677d8da2e04E>
    715a:	66 48 0f 6e c0       	movq   xmm0,rax
    715f:	48 8d 05 1a a0 22 00 	lea    rax,[rip+0x22a01a]        # 231180 <ref.35>
    7166:	66 48 0f 6e c8       	movq   xmm1,rax
    716b:	66 0f 6c c8          	punpcklqdq xmm1,xmm0
    716f:	66 0f 7f 4c 24 30    	movdqa XMMWORD PTR [rsp+0x30],xmm1
    7175:	48 8d 05 f4 9f 22 00 	lea    rax,[rip+0x229ff4]        # 231170 <ref.33>
    717c:	48 89 04 24          	mov    QWORD PTR [rsp],rax
    7180:	48 c7 44 24 08 01 00 	mov    QWORD PTR [rsp+0x8],0x1
    7187:	00 00 
    7189:	48 c7 44 24 10 00 00 	mov    QWORD PTR [rsp+0x10],0x0
    7190:	00 00 
    7192:	48 8d 44 24 30       	lea    rax,[rsp+0x30]
    7197:	48 89 44 24 20       	mov    QWORD PTR [rsp+0x20],rax
    719c:	48 c7 44 24 28 01 00 	mov    QWORD PTR [rsp+0x28],0x1
    71a3:	00 00 
    71a5:	48 8d 35 e4 9f 22 00 	lea    rsi,[rip+0x229fe4]        # 231190 <ref.36>
    71ac:	48 89 e7             	mov    rdi,rsp
    71af:	e8 5c ee 00 00       	call   16010 <_ZN3std9panicking15begin_panic_fmt17h01bbd4a0f261f6c8E>
    71b4:	66 2e 0f 1f 84 00 00 	nop    WORD PTR cs:[rax+rax*1+0x0]
    71bb:	00 00 00 
    71be:	66 90                	xchg   ax,ax

00000000000071c0 <_ZN6base646decode10num_chunks17h92c8c282a1417865E>:
    71c0:	50                   	push   rax
    71c1:	48 83 c6 07          	add    rsi,0x7
    71c5:	72 09                	jb     71d0 <_ZN6base646decode10num_chunks17h92c8c282a1417865E+0x10>
    71c7:	48 c1 ee 03          	shr    rsi,0x3
    71cb:	48 89 f0             	mov    rax,rsi
    71ce:	59                   	pop    rcx
    71cf:	c3                   	ret    
    71d0:	48 8d 3d 79 d1 01 00 	lea    rdi,[rip+0x1d179]        # 24350 <str.3i>
    71d7:	be 33 00 00 00       	mov    esi,0x33
    71dc:	e8 3f 77 01 00       	call   1e920 <_ZN4core6option13expect_failed17hea9c17570c15aad1E>
    71e1:	66 2e 0f 1f 84 00 00 	nop    WORD PTR cs:[rax+rax*1+0x0]
    71e8:	00 00 00 
    71eb:	0f 1f 44 00 00       	nop    DWORD PTR [rax+rax*1+0x0]

00000000000071f0 <_ZN6base646decode23copy_without_whitespace17h86fccf412855df3fE>:
    71f0:	55                   	push   rbp
    71f1:	41 57                	push   r15
    71f3:	41 56                	push   r14
    71f5:	41 55                	push   r13
    71f7:	41 54                	push   r12
    71f9:	53                   	push   rbx
    71fa:	48 83 ec 58          	sub    rsp,0x58
    71fe:	49 89 d7             	mov    r15,rdx
    7201:	48 89 f3             	mov    rbx,rsi
    7204:	48 89 fd             	mov    rbp,rdi
    7207:	4d 85 ff             	test   r15,r15
    720a:	74 26                	je     7232 <_ZN6base646decode23copy_without_whitespace17h86fccf412855df3fE+0x42>
    720c:	48 8d 54 24 08       	lea    rdx,[rsp+0x8]
    7211:	be 01 00 00 00       	mov    esi,0x1
    7216:	4c 89 ff             	mov    rdi,r15
    7219:	e8 32 f0 ff ff       	call   6250 <__rust_alloc>
    721e:	48 85 c0             	test   rax,rax
    7221:	75 14                	jne    7237 <_ZN6base646decode23copy_without_whitespace17h86fccf412855df3fE+0x47>
    7223:	0f 10 44 24 10       	movups xmm0,XMMWORD PTR [rsp+0x10]
    7228:	0f 29 44 24 20       	movaps XMMWORD PTR [rsp+0x20],xmm0
    722d:	e9 36 02 00 00       	jmp    7468 <_ZN6base646decode23copy_without_whitespace17h86fccf412855df3fE+0x278>
    7232:	b8 01 00 00 00       	mov    eax,0x1
    7237:	48 89 44 24 30       	mov    QWORD PTR [rsp+0x30],rax
    723c:	4c 89 7c 24 38       	mov    QWORD PTR [rsp+0x38],r15
    7241:	48 c7 44 24 40 00 00 	mov    QWORD PTR [rsp+0x40],0x0
    7248:	00 00 
    724a:	49 01 df             	add    r15,rbx
    724d:	31 f6                	xor    esi,esi
    724f:	4c 8d 6c 24 08       	lea    r13,[rsp+0x8]
    7254:	4c 8d 74 24 20       	lea    r14,[rsp+0x20]
    7259:	4c 8d 05 21 d1 01 00 	lea    r8,[rip+0x1d121]        # 24381 <str.3i+0x31>
    7260:	48 8d 3d 1c d1 01 00 	lea    rdi,[rip+0x1d11c]        # 24383 <byte_str.3j>
    7267:	4c 39 fb             	cmp    rbx,r15
    726a:	0f 85 f9 00 00 00    	jne    7369 <_ZN6base646decode23copy_without_whitespace17h86fccf412855df3fE+0x179>
    7270:	e9 ca 01 00 00       	jmp    743f <_ZN6base646decode23copy_without_whitespace17h86fccf412855df3fE+0x24f>
    7275:	0f b6 44 24 20       	movzx  eax,BYTE PTR [rsp+0x20]
    727a:	0f b7 d0             	movzx  edx,ax
    727d:	c1 e2 08             	shl    edx,0x8
    7280:	0f b7 c1             	movzx  eax,cx
    7283:	09 d0                	or     eax,edx
    7285:	f6 c4 01             	test   ah,0x1
    7288:	0f 84 d2 00 00 00    	je     7360 <_ZN6base646decode23copy_without_whitespace17h86fccf412855df3fE+0x170>
    728e:	48 39 74 24 38       	cmp    QWORD PTR [rsp+0x38],rsi
    7293:	75 4b                	jne    72e0 <_ZN6base646decode23copy_without_whitespace17h86fccf412855df3fE+0xf0>
    7295:	48 89 6c 24 50       	mov    QWORD PTR [rsp+0x50],rbp
    729a:	48 89 f0             	mov    rax,rsi
    729d:	48 83 c0 01          	add    rax,0x1
    72a1:	0f 82 d5 01 00 00    	jb     747c <_ZN6base646decode23copy_without_whitespace17h86fccf412855df3fE+0x28c>
    72a7:	48 8d 2c 36          	lea    rbp,[rsi+rsi*1]
    72ab:	48 39 e8             	cmp    rax,rbp
    72ae:	48 0f 43 e8          	cmovae rbp,rax
    72b2:	48 85 f6             	test   rsi,rsi
    72b5:	48 89 74 24 48       	mov    QWORD PTR [rsp+0x48],rsi
    72ba:	74 2b                	je     72e7 <_ZN6base646decode23copy_without_whitespace17h86fccf412855df3fE+0xf7>
    72bc:	48 8b 7c 24 30       	mov    rdi,QWORD PTR [rsp+0x30]
    72c1:	ba 01 00 00 00       	mov    edx,0x1
    72c6:	41 b8 01 00 00 00    	mov    r8d,0x1
    72cc:	48 89 e9             	mov    rcx,rbp
    72cf:	4d 89 e9             	mov    r9,r13
    72d2:	e8 a9 ef ff ff       	call   6280 <__rust_realloc>
    72d7:	48 85 c0             	test   rax,rax
    72da:	74 24                	je     7300 <_ZN6base646decode23copy_without_whitespace17h86fccf412855df3fE+0x110>
    72dc:	31 c9                	xor    ecx,ecx
    72de:	eb 37                	jmp    7317 <_ZN6base646decode23copy_without_whitespace17h86fccf412855df3fE+0x127>
    72e0:	48 8b 44 24 30       	mov    rax,QWORD PTR [rsp+0x30]
    72e5:	eb 5e                	jmp    7345 <_ZN6base646decode23copy_without_whitespace17h86fccf412855df3fE+0x155>
    72e7:	be 01 00 00 00       	mov    esi,0x1
    72ec:	48 89 ef             	mov    rdi,rbp
    72ef:	4c 89 ea             	mov    rdx,r13
    72f2:	e8 59 ef ff ff       	call   6250 <__rust_alloc>
    72f7:	48 85 c0             	test   rax,rax
    72fa:	74 09                	je     7305 <_ZN6base646decode23copy_without_whitespace17h86fccf412855df3fE+0x115>
    72fc:	31 c9                	xor    ecx,ecx
    72fe:	eb 17                	jmp    7317 <_ZN6base646decode23copy_without_whitespace17h86fccf412855df3fE+0x127>
    7300:	48 8b 44 24 08       	mov    rax,QWORD PTR [rsp+0x8]
    7305:	48 8d 4c 24 10       	lea    rcx,[rsp+0x10]
    730a:	0f 10 01             	movups xmm0,XMMWORD PTR [rcx]
    730d:	0f 29 44 24 20       	movaps XMMWORD PTR [rsp+0x20],xmm0
    7312:	b9 01 00 00 00       	mov    ecx,0x1
    7317:	48 8d 3d 63 d0 01 00 	lea    rdi,[rip+0x1d063]        # 24381 <str.3i+0x31>
    731e:	49 89 f8             	mov    r8,rdi
    7321:	48 8b 74 24 48       	mov    rsi,QWORD PTR [rsp+0x48]
    7326:	48 8d 3d 56 d0 01 00 	lea    rdi,[rip+0x1d056]        # 24383 <byte_str.3j>
    732d:	48 85 c9             	test   rcx,rcx
    7330:	0f 85 2d 01 00 00    	jne    7463 <_ZN6base646decode23copy_without_whitespace17h86fccf412855df3fE+0x273>
    7336:	48 89 44 24 30       	mov    QWORD PTR [rsp+0x30],rax
    733b:	48 89 6c 24 38       	mov    QWORD PTR [rsp+0x38],rbp
    7340:	48 8b 6c 24 50       	mov    rbp,QWORD PTR [rsp+0x50]
    7345:	44 88 24 30          	mov    BYTE PTR [rax+rsi*1],r12b
    7349:	48 ff c6             	inc    rsi
    734c:	48 89 74 24 40       	mov    QWORD PTR [rsp+0x40],rsi
    7351:	66 66 66 66 66 66 2e 	data16 data16 data16 data16 data16 nop WORD PTR cs:[rax+rax*1+0x0]
    7358:	0f 1f 84 00 00 00 00 
    735f:	00 
    7360:	4c 39 fb             	cmp    rbx,r15
    7363:	0f 84 d6 00 00 00    	je     743f <_ZN6base646decode23copy_without_whitespace17h86fccf412855df3fE+0x24f>
    7369:	44 8a 23             	mov    r12b,BYTE PTR [rbx]
    736c:	41 80 fc 20          	cmp    r12b,0x20
    7370:	4c 89 e8             	mov    rax,r13
    7373:	75 08                	jne    737d <_ZN6base646decode23copy_without_whitespace17h86fccf412855df3fE+0x18d>
    7375:	c6 44 24 08 01       	mov    BYTE PTR [rsp+0x8],0x1
    737a:	4c 89 f0             	mov    rax,r14
    737d:	48 ff c3             	inc    rbx
    7380:	c6 00 00             	mov    BYTE PTR [rax],0x0
    7383:	0f b6 4c 24 08       	movzx  ecx,BYTE PTR [rsp+0x8]
    7388:	66 85 c9             	test   cx,cx
    738b:	75 63                	jne    73f0 <_ZN6base646decode23copy_without_whitespace17h86fccf412855df3fE+0x200>
    738d:	41 80 fc 0a          	cmp    r12b,0xa
    7391:	4c 89 e8             	mov    rax,r13
    7394:	75 08                	jne    739e <_ZN6base646decode23copy_without_whitespace17h86fccf412855df3fE+0x1ae>
    7396:	c6 44 24 08 01       	mov    BYTE PTR [rsp+0x8],0x1
    739b:	4c 89 f0             	mov    rax,r14
    739e:	c6 00 00             	mov    BYTE PTR [rax],0x0
    73a1:	0f b6 4c 24 08       	movzx  ecx,BYTE PTR [rsp+0x8]
    73a6:	66 85 c9             	test   cx,cx
    73a9:	75 45                	jne    73f0 <_ZN6base646decode23copy_without_whitespace17h86fccf412855df3fE+0x200>
    73ab:	41 80 fc 09          	cmp    r12b,0x9
    73af:	4c 89 e8             	mov    rax,r13
    73b2:	75 08                	jne    73bc <_ZN6base646decode23copy_without_whitespace17h86fccf412855df3fE+0x1cc>
    73b4:	c6 44 24 08 01       	mov    BYTE PTR [rsp+0x8],0x1
    73b9:	4c 89 f0             	mov    rax,r14
    73bc:	c6 00 00             	mov    BYTE PTR [rax],0x0
    73bf:	0f b6 4c 24 08       	movzx  ecx,BYTE PTR [rsp+0x8]
    73c4:	66 85 c9             	test   cx,cx
    73c7:	75 27                	jne    73f0 <_ZN6base646decode23copy_without_whitespace17h86fccf412855df3fE+0x200>
    73c9:	41 80 fc 0d          	cmp    r12b,0xd
    73cd:	4c 89 e8             	mov    rax,r13
    73d0:	75 08                	jne    73da <_ZN6base646decode23copy_without_whitespace17h86fccf412855df3fE+0x1ea>
    73d2:	c6 44 24 08 01       	mov    BYTE PTR [rsp+0x8],0x1
    73d7:	4c 89 f0             	mov    rax,r14
    73da:	c6 00 00             	mov    BYTE PTR [rax],0x0
    73dd:	0f b6 4c 24 08       	movzx  ecx,BYTE PTR [rsp+0x8]
    73e2:	66 85 c9             	test   cx,cx
    73e5:	74 21                	je     7408 <_ZN6base646decode23copy_without_whitespace17h86fccf412855df3fE+0x218>
    73e7:	66 0f 1f 84 00 00 00 	nop    WORD PTR [rax+rax*1+0x0]
    73ee:	00 00 
    73f0:	0f b6 44 24 20       	movzx  eax,BYTE PTR [rsp+0x20]
    73f5:	c1 e0 08             	shl    eax,0x8
    73f8:	09 c8                	or     eax,ecx
    73fa:	f6 c4 01             	test   ah,0x1
    73fd:	0f 84 5d ff ff ff    	je     7360 <_ZN6base646decode23copy_without_whitespace17h86fccf412855df3fE+0x170>
    7403:	e9 86 fe ff ff       	jmp    728e <_ZN6base646decode23copy_without_whitespace17h86fccf412855df3fE+0x9e>
    7408:	4c 89 c0             	mov    rax,r8
    740b:	0f 1f 44 00 00       	nop    DWORD PTR [rax+rax*1+0x0]
    7410:	48 39 c7             	cmp    rdi,rax
    7413:	0f 84 75 fe ff ff    	je     728e <_ZN6base646decode23copy_without_whitespace17h86fccf412855df3fE+0x9e>
    7419:	44 38 60 06          	cmp    BYTE PTR [rax+0x6],r12b
    741d:	4c 89 e9             	mov    rcx,r13
    7420:	75 08                	jne    742a <_ZN6base646decode23copy_without_whitespace17h86fccf412855df3fE+0x23a>
    7422:	c6 44 24 08 01       	mov    BYTE PTR [rsp+0x8],0x1
    7427:	4c 89 f1             	mov    rcx,r14
    742a:	c6 01 00             	mov    BYTE PTR [rcx],0x0
    742d:	0f b6 4c 24 08       	movzx  ecx,BYTE PTR [rsp+0x8]
    7432:	48 ff c0             	inc    rax
    7435:	66 85 c9             	test   cx,cx
    7438:	74 d6                	je     7410 <_ZN6base646decode23copy_without_whitespace17h86fccf412855df3fE+0x220>
    743a:	e9 36 fe ff ff       	jmp    7275 <_ZN6base646decode23copy_without_whitespace17h86fccf412855df3fE+0x85>
    743f:	48 8b 44 24 40       	mov    rax,QWORD PTR [rsp+0x40]
    7444:	48 89 45 10          	mov    QWORD PTR [rbp+0x10],rax
    7448:	0f 10 44 24 30       	movups xmm0,XMMWORD PTR [rsp+0x30]
    744d:	0f 11 45 00          	movups XMMWORD PTR [rbp+0x0],xmm0
    7451:	48 89 e8             	mov    rax,rbp
    7454:	48 83 c4 58          	add    rsp,0x58
    7458:	5b                   	pop    rbx
    7459:	41 5c                	pop    r12
    745b:	41 5d                	pop    r13
    745d:	41 5e                	pop    r14
    745f:	41 5f                	pop    r15
    7461:	5d                   	pop    rbp
    7462:	c3                   	ret    
    7463:	48 89 44 24 08       	mov    QWORD PTR [rsp+0x8],rax
    7468:	0f 28 44 24 20       	movaps xmm0,XMMWORD PTR [rsp+0x20]
    746d:	0f 11 44 24 10       	movups XMMWORD PTR [rsp+0x10],xmm0
    7472:	48 8d 7c 24 08       	lea    rdi,[rsp+0x8]
    7477:	e8 24 ef ff ff       	call   63a0 <_ZN61_$LT$alloc..heap..Heap$u20$as$u20$alloc..allocator..Alloc$GT$3oom17hba3f1ad762ab25d1E>
    747c:	48 8d 3d ed c9 01 00 	lea    rdi,[rip+0x1c9ed]        # 23e70 <str.5>
    7483:	be 11 00 00 00       	mov    esi,0x11
    7488:	e8 93 74 01 00       	call   1e920 <_ZN4core6option13expect_failed17hea9c17570c15aad1E>
    748d:	48 89 c3             	mov    rbx,rax
    7490:	48 8d 7c 24 30       	lea    rdi,[rsp+0x30]
    7495:	e8 76 ee ff ff       	call   6310 <_ZN4core3ptr13drop_in_place17h4efe2aebe62afbbfE>
    749a:	48 89 df             	mov    rdi,rbx
    749d:	e8 5e cd ff ff       	call   4200 <_Unwind_Resume@plt>
    74a2:	66 2e 0f 1f 84 00 00 	nop    WORD PTR cs:[rax+rax*1+0x0]
    74a9:	00 00 00 
    74ac:	0f 1f 40 00          	nop    DWORD PTR [rax+0x0]

00000000000074b0 <_ZN6base6412CharacterSet12decode_table17h8ce2fe73197bd99fE>:
    74b0:	80 3f 00             	cmp    BYTE PTR [rdi],0x0
    74b3:	48 8d 0d 4f d0 01 00 	lea    rcx,[rip+0x1d04f]        # 24509 <ref.3n>
    74ba:	48 8d 05 48 cf 01 00 	lea    rax,[rip+0x1cf48]        # 24409 <ref.3m>
    74c1:	48 0f 44 c1          	cmove  rax,rcx
    74c5:	c3                   	ret    
    74c6:	66 2e 0f 1f 84 00 00 	nop    WORD PTR cs:[rax+rax*1+0x0]
    74cd:	00 00 00 

00000000000074d0 <_ZN64_$LT$base64..decode..DecodeError$u20$as$u20$core..fmt..Debug$GT$3fmt17he905ad8c663e3611E>:
    74d0:	41 57                	push   r15
    74d2:	41 56                	push   r14
    74d4:	53                   	push   rbx
    74d5:	48 83 ec 20          	sub    rsp,0x20
    74d9:	48 89 fb             	mov    rbx,rdi
    74dc:	80 3b 00             	cmp    BYTE PTR [rbx],0x0
    74df:	74 1e                	je     74ff <_ZN64_$LT$base64..decode..DecodeError$u20$as$u20$core..fmt..Debug$GT$3fmt17he905ad8c663e3611E+0x2f>
    74e1:	48 8d 15 21 d1 01 00 	lea    rdx,[rip+0x1d121]        # 24609 <str.3w>
    74e8:	48 8d 5c 24 08       	lea    rbx,[rsp+0x8]
    74ed:	b9 0d 00 00 00       	mov    ecx,0xd
    74f2:	48 89 df             	mov    rdi,rbx
    74f5:	e8 46 9d 01 00       	call   21240 <_ZN4core3fmt9Formatter11debug_tuple17h78e4633cd8e02bb8E>
    74fa:	48 89 df             	mov    rdi,rbx
    74fd:	eb 4f                	jmp    754e <_ZN64_$LT$base64..decode..DecodeError$u20$as$u20$core..fmt..Debug$GT$3fmt17he905ad8c663e3611E+0x7e>
    74ff:	4c 8d 7b 08          	lea    r15,[rbx+0x8]
    7503:	48 ff c3             	inc    rbx
    7506:	48 8d 15 09 d1 01 00 	lea    rdx,[rip+0x1d109]        # 24616 <str.3x>
    750d:	4c 8d 74 24 08       	lea    r14,[rsp+0x8]
    7512:	b9 0b 00 00 00       	mov    ecx,0xb
    7517:	4c 89 f7             	mov    rdi,r14
    751a:	e8 21 9d 01 00       	call   21240 <_ZN4core3fmt9Formatter11debug_tuple17h78e4633cd8e02bb8E>
    751f:	4c 89 3c 24          	mov    QWORD PTR [rsp],r15
    7523:	48 8d 15 96 9c 22 00 	lea    rdx,[rip+0x229c96]        # 2311c0 <vtable.3r>
    752a:	48 89 e6             	mov    rsi,rsp
    752d:	4c 89 f7             	mov    rdi,r14
    7530:	e8 6b 88 01 00       	call   1fda0 <_ZN4core3fmt8builders10DebugTuple5field17h4c9de9bf4f0262d9E>
    7535:	48 89 1c 24          	mov    QWORD PTR [rsp],rbx
    7539:	48 8d 15 a0 9c 22 00 	lea    rdx,[rip+0x229ca0]        # 2311e0 <vtable.3y>
    7540:	48 89 e6             	mov    rsi,rsp
    7543:	4c 89 f7             	mov    rdi,r14
    7546:	e8 55 88 01 00       	call   1fda0 <_ZN4core3fmt8builders10DebugTuple5field17h4c9de9bf4f0262d9E>
    754b:	4c 89 f7             	mov    rdi,r14
    754e:	e8 cd 89 01 00       	call   1ff20 <_ZN4core3fmt8builders10DebugTuple6finish17ha472ee7c4af68794E>
    7553:	48 83 c4 20          	add    rsp,0x20
    7557:	5b                   	pop    rbx
    7558:	41 5e                	pop    r14
    755a:	41 5f                	pop    r15
    755c:	c3                   	ret    
    755d:	0f 1f 00             	nop    DWORD PTR [rax]

0000000000007560 <_ZN36_$LT$T$u20$as$u20$core..any..Any$GT$11get_type_id17hd1cc0d11241147b8E>:
    7560:	48 b8 a6 a6 64 de ab 	movabs rax,0xee57f9abde64a6a6
    7567:	f9 57 ee 
    756a:	c3                   	ret    
    756b:	0f 1f 44 00 00       	nop    DWORD PTR [rax+rax*1+0x0]

0000000000007570 <_ZN3std4sync4once4Once9call_once28_$u7b$$u7b$closure$u7d$$u7d$17h44f65a40128c3666E>:
    7570:	41 56                	push   r14
    7572:	53                   	push   rbx
    7573:	48 83 ec 18          	sub    rsp,0x18
    7577:	48 8b 07             	mov    rax,QWORD PTR [rdi]
    757a:	80 38 00             	cmp    BYTE PTR [rax],0x0
    757d:	c6 00 00             	mov    BYTE PTR [rax],0x0
    7580:	0f 84 9a 00 00 00    	je     7620 <_ZN3std4sync4once4Once9call_once28_$u7b$$u7b$closure$u7d$$u7d$17h44f65a40128c3666E+0xb0>
    7586:	48 8d 74 24 07       	lea    rsi,[rsp+0x7]
    758b:	bf 3e 01 00 00       	mov    edi,0x13e
    7590:	31 d2                	xor    edx,edx
    7592:	31 c9                	xor    ecx,ecx
    7594:	31 c0                	xor    eax,eax
    7596:	e8 75 cb ff ff       	call   4110 <syscall@plt>
    759b:	b1 01                	mov    cl,0x1
    759d:	48 83 f8 ff          	cmp    rax,0xffffffffffffffff
    75a1:	75 6f                	jne    7612 <_ZN3std4sync4once4Once9call_once28_$u7b$$u7b$closure$u7d$$u7d$17h44f65a40128c3666E+0xa2>
    75a3:	48 8d 5c 24 08       	lea    rbx,[rsp+0x8]
    75a8:	48 89 df             	mov    rdi,rbx
    75ab:	e8 a0 67 00 00       	call   dd50 <_ZN3std2io5error5Error13last_os_error17h4c76d9b123181d5cE>
    75b0:	48 89 df             	mov    rdi,rbx
    75b3:	e8 b8 67 00 00       	call   dd70 <_ZN3std2io5error5Error12raw_os_error17ha6065f36f167bb1aE>
    75b8:	48 89 c3             	mov    rbx,rax
    75bb:	80 7c 24 08 02       	cmp    BYTE PTR [rsp+0x8],0x2
    75c0:	72 3d                	jb     75ff <_ZN3std4sync4once4Once9call_once28_$u7b$$u7b$closure$u7d$$u7d$17h44f65a40128c3666E+0x8f>
    75c2:	4c 8b 74 24 10       	mov    r14,QWORD PTR [rsp+0x10]
    75c7:	49 8b 7e 08          	mov    rdi,QWORD PTR [r14+0x8]
    75cb:	49 8b 46 10          	mov    rax,QWORD PTR [r14+0x10]
    75cf:	ff 10                	call   QWORD PTR [rax]
    75d1:	49 8b 46 10          	mov    rax,QWORD PTR [r14+0x10]
    75d5:	48 8b 70 08          	mov    rsi,QWORD PTR [rax+0x8]
    75d9:	48 85 f6             	test   rsi,rsi
    75dc:	74 0d                	je     75eb <_ZN3std4sync4once4Once9call_once28_$u7b$$u7b$closure$u7d$$u7d$17h44f65a40128c3666E+0x7b>
    75de:	49 8b 7e 08          	mov    rdi,QWORD PTR [r14+0x8]
    75e2:	48 8b 50 10          	mov    rdx,QWORD PTR [rax+0x10]
    75e6:	e8 85 ec ff ff       	call   6270 <__rust_dealloc>
    75eb:	48 8b 7c 24 10       	mov    rdi,QWORD PTR [rsp+0x10]
    75f0:	be 18 00 00 00       	mov    esi,0x18
    75f5:	ba 08 00 00 00       	mov    edx,0x8
    75fa:	e8 71 ec ff ff       	call   6270 <__rust_dealloc>
    75ff:	83 fb 01             	cmp    ebx,0x1
    7602:	0f 95 c0             	setne  al
    7605:	48 c1 eb 20          	shr    rbx,0x20
    7609:	48 83 fb 26          	cmp    rbx,0x26
    760d:	0f 95 c1             	setne  cl
    7610:	08 c1                	or     cl,al
    7612:	88 0d c8 ba 22 00    	mov    BYTE PTR [rip+0x22bac8],cl        # 2330e0 <_ZN4rand2os3imp22is_getrandom_available9AVAILABLE17h91f14a44919099c3E.0.0>
    7618:	48 83 c4 18          	add    rsp,0x18
    761c:	5b                   	pop    rbx
    761d:	41 5e                	pop    r14
    761f:	c3                   	ret    
    7620:	48 8d 3d d9 9b 22 00 	lea    rdi,[rip+0x229bd9]        # 231200 <ref.3>
    7627:	e8 b4 71 01 00       	call   1e7e0 <_ZN4core9panicking5panic17h7bac37468d8048c5E>
    762c:	48 89 c3             	mov    rbx,rax
    762f:	49 8b 7e 08          	mov    rdi,QWORD PTR [r14+0x8]
    7633:	49 8b 76 10          	mov    rsi,QWORD PTR [r14+0x10]
    7637:	e8 d4 04 00 00       	call   7b10 <_ZN5alloc4heap8box_free17h0d868de7bdb0224bE>
    763c:	48 8b 7c 24 10       	mov    rdi,QWORD PTR [rsp+0x10]
    7641:	e8 ea 04 00 00       	call   7b30 <_ZN5alloc4heap8box_free17hf26f55995d21b8cdE>
    7646:	48 89 df             	mov    rdi,rbx
    7649:	e8 b2 cb ff ff       	call   4200 <_Unwind_Resume@plt>
    764e:	48 89 c3             	mov    rbx,rax
    7651:	48 8d 7c 24 08       	lea    rdi,[rsp+0x8]
    7656:	e8 05 01 00 00       	call   7760 <_ZN4core3ptr13drop_in_place17h26b7bcc14fd3b4feE>
    765b:	48 89 df             	mov    rdi,rbx
    765e:	e8 9d cb ff ff       	call   4200 <_Unwind_Resume@plt>
    7663:	66 2e 0f 1f 84 00 00 	nop    WORD PTR cs:[rax+rax*1+0x0]
    766a:	00 00 00 
    766d:	0f 1f 00             	nop    DWORD PTR [rax]

0000000000007670 <_ZN3std6thread5local4fast13destroy_value17h31d646fe89defa94E>:
    7670:	53                   	push   rbx
    7671:	48 89 fb             	mov    rbx,rdi
    7674:	c6 43 09 01          	mov    BYTE PTR [rbx+0x9],0x1
    7678:	e8 93 d7 00 00       	call   14e10 <_ZN3std3sys3imp17fast_thread_local25requires_move_before_drop17h7b6e13b517315322E>
    767d:	48 8b 3b             	mov    rdi,QWORD PTR [rbx]
    7680:	84 c0                	test   al,al
    7682:	74 12                	je     7696 <_ZN3std6thread5local4fast13destroy_value17h31d646fe89defa94E+0x26>
    7684:	48 85 ff             	test   rdi,rdi
    7687:	74 2c                	je     76b5 <_ZN3std6thread5local4fast13destroy_value17h31d646fe89defa94E+0x45>
    7689:	48 ff 0f             	dec    QWORD PTR [rdi]
    768c:	75 27                	jne    76b5 <_ZN3std6thread5local4fast13destroy_value17h31d646fe89defa94E+0x45>
    768e:	48 ff 4f 08          	dec    QWORD PTR [rdi+0x8]
    7692:	75 21                	jne    76b5 <_ZN3std6thread5local4fast13destroy_value17h31d646fe89defa94E+0x45>
    7694:	eb 21                	jmp    76b7 <_ZN3std6thread5local4fast13destroy_value17h31d646fe89defa94E+0x47>
    7696:	48 85 ff             	test   rdi,rdi
    7699:	74 1a                	je     76b5 <_ZN3std6thread5local4fast13destroy_value17h31d646fe89defa94E+0x45>
    769b:	48 ff 0f             	dec    QWORD PTR [rdi]
    769e:	48 8b 03             	mov    rax,QWORD PTR [rbx]
    76a1:	48 83 38 00          	cmp    QWORD PTR [rax],0x0
    76a5:	75 0e                	jne    76b5 <_ZN3std6thread5local4fast13destroy_value17h31d646fe89defa94E+0x45>
    76a7:	48 ff 48 08          	dec    QWORD PTR [rax+0x8]
    76ab:	48 8b 03             	mov    rax,QWORD PTR [rbx]
    76ae:	48 83 78 08 00       	cmp    QWORD PTR [rax+0x8],0x0
    76b3:	74 02                	je     76b7 <_ZN3std6thread5local4fast13destroy_value17h31d646fe89defa94E+0x47>
    76b5:	5b                   	pop    rbx
    76b6:	c3                   	ret    
    76b7:	be 48 10 00 00       	mov    esi,0x1048
    76bc:	ba 08 00 00 00       	mov    edx,0x8
    76c1:	5b                   	pop    rbx
    76c2:	e9 a9 eb ff ff       	jmp    6270 <__rust_dealloc>
    76c7:	66 0f 1f 84 00 00 00 	nop    WORD PTR [rax+rax*1+0x0]
    76ce:	00 00 

00000000000076d0 <_ZN3std9panicking11begin_panic17ha68c0f359aea3516E>:
    76d0:	41 57                	push   r15
    76d2:	41 56                	push   r14
    76d4:	53                   	push   rbx
    76d5:	48 83 ec 30          	sub    rsp,0x30
    76d9:	49 89 d6             	mov    r14,rdx
    76dc:	49 89 f7             	mov    r15,rsi
    76df:	48 89 fb             	mov    rbx,rdi
    76e2:	48 8d 54 24 08       	lea    rdx,[rsp+0x8]
    76e7:	bf 10 00 00 00       	mov    edi,0x10
    76ec:	be 08 00 00 00       	mov    esi,0x8
    76f1:	e8 5a eb ff ff       	call   6250 <__rust_alloc>
    76f6:	48 85 c0             	test   rax,rax
    76f9:	75 27                	jne    7722 <_ZN3std9panicking11begin_panic17ha68c0f359aea3516E+0x52>
    76fb:	0f 10 44 24 10       	movups xmm0,XMMWORD PTR [rsp+0x10]
    7700:	0f 29 44 24 20       	movaps XMMWORD PTR [rsp+0x20],xmm0
    7705:	48 c7 44 24 08 00 00 	mov    QWORD PTR [rsp+0x8],0x0
    770c:	00 00 
    770e:	0f 28 44 24 20       	movaps xmm0,XMMWORD PTR [rsp+0x20]
    7713:	0f 11 44 24 10       	movups XMMWORD PTR [rsp+0x10],xmm0
    7718:	48 8d 7c 24 08       	lea    rdi,[rsp+0x8]
    771d:	e8 1e 04 00 00       	call   7b40 <_ZN61_$LT$alloc..heap..Heap$u20$as$u20$alloc..allocator..Alloc$GT$3oom17hba3f1ad762ab25d1E>
    7722:	48 89 18             	mov    QWORD PTR [rax],rbx
    7725:	4c 89 78 08          	mov    QWORD PTR [rax+0x8],r15
    7729:	48 8d 35 20 9b 22 00 	lea    rsi,[rip+0x229b20]        # 231250 <vtable.9>
    7730:	48 89 c7             	mov    rdi,rax
    7733:	4c 89 f2             	mov    rdx,r14
    7736:	e8 45 ea 00 00       	call   16180 <_ZN3std9panicking20rust_panic_with_hook17h39252d3436106231E>
    773b:	0f 1f 44 00 00       	nop    DWORD PTR [rax+rax*1+0x0]

0000000000007740 <_ZN4core3ops8function6FnOnce9call_once17h77e447c4619445acE>:
    7740:	50                   	push   rax
    7741:	48 89 3c 24          	mov    QWORD PTR [rsp],rdi
    7745:	40 0f b6 f6          	movzx  esi,sil
    7749:	48 89 e7             	mov    rdi,rsp
    774c:	e8 1f fe ff ff       	call   7570 <_ZN3std4sync4once4Once9call_once28_$u7b$$u7b$closure$u7d$$u7d$17h44f65a40128c3666E>
    7751:	58                   	pop    rax
    7752:	c3                   	ret    
    7753:	66 2e 0f 1f 84 00 00 	nop    WORD PTR cs:[rax+rax*1+0x0]
    775a:	00 00 00 
    775d:	0f 1f 00             	nop    DWORD PTR [rax]

0000000000007760 <_ZN4core3ptr13drop_in_place17h26b7bcc14fd3b4feE>:
    7760:	41 57                	push   r15
    7762:	41 56                	push   r14
    7764:	53                   	push   rbx
    7765:	49 89 ff             	mov    r15,rdi
    7768:	41 80 3f 02          	cmp    BYTE PTR [r15],0x2
    776c:	73 06                	jae    7774 <_ZN4core3ptr13drop_in_place17h26b7bcc14fd3b4feE+0x14>
    776e:	5b                   	pop    rbx
    776f:	41 5e                	pop    r14
    7771:	41 5f                	pop    r15
    7773:	c3                   	ret    
    7774:	49 8b 5f 08          	mov    rbx,QWORD PTR [r15+0x8]
    7778:	48 8b 7b 08          	mov    rdi,QWORD PTR [rbx+0x8]
    777c:	48 8b 43 10          	mov    rax,QWORD PTR [rbx+0x10]
    7780:	ff 10                	call   QWORD PTR [rax]
    7782:	48 8b 43 10          	mov    rax,QWORD PTR [rbx+0x10]
    7786:	48 8b 70 08          	mov    rsi,QWORD PTR [rax+0x8]
    778a:	48 85 f6             	test   rsi,rsi
    778d:	74 0d                	je     779c <_ZN4core3ptr13drop_in_place17h26b7bcc14fd3b4feE+0x3c>
    778f:	48 8b 7b 08          	mov    rdi,QWORD PTR [rbx+0x8]
    7793:	48 8b 50 10          	mov    rdx,QWORD PTR [rax+0x10]
    7797:	e8 d4 ea ff ff       	call   6270 <__rust_dealloc>
    779c:	49 8b 7f 08          	mov    rdi,QWORD PTR [r15+0x8]
    77a0:	be 18 00 00 00       	mov    esi,0x18
    77a5:	ba 08 00 00 00       	mov    edx,0x8
    77aa:	5b                   	pop    rbx
    77ab:	41 5e                	pop    r14
    77ad:	41 5f                	pop    r15
    77af:	e9 bc ea ff ff       	jmp    6270 <__rust_dealloc>
    77b4:	49 89 c6             	mov    r14,rax
    77b7:	48 8b 7b 08          	mov    rdi,QWORD PTR [rbx+0x8]
    77bb:	48 8b 73 10          	mov    rsi,QWORD PTR [rbx+0x10]
    77bf:	e8 4c 03 00 00       	call   7b10 <_ZN5alloc4heap8box_free17h0d868de7bdb0224bE>
    77c4:	49 8b 7f 08          	mov    rdi,QWORD PTR [r15+0x8]
    77c8:	e8 63 03 00 00       	call   7b30 <_ZN5alloc4heap8box_free17hf26f55995d21b8cdE>
    77cd:	4c 89 f7             	mov    rdi,r14
    77d0:	e8 2b ca ff ff       	call   4200 <_Unwind_Resume@plt>
    77d5:	66 2e 0f 1f 84 00 00 	nop    WORD PTR cs:[rax+rax*1+0x0]
    77dc:	00 00 00 
    77df:	90                   	nop

00000000000077e0 <_ZN4core3ptr13drop_in_place17h3d6c8719df125942E>:
    77e0:	41 57                	push   r15
    77e2:	41 56                	push   r14
    77e4:	53                   	push   rbx
    77e5:	48 89 fb             	mov    rbx,rdi
    77e8:	48 83 3b 00          	cmp    QWORD PTR [rbx],0x0
    77ec:	74 06                	je     77f4 <_ZN4core3ptr13drop_in_place17h3d6c8719df125942E+0x14>
    77ee:	80 7b 08 02          	cmp    BYTE PTR [rbx+0x8],0x2
    77f2:	73 06                	jae    77fa <_ZN4core3ptr13drop_in_place17h3d6c8719df125942E+0x1a>
    77f4:	5b                   	pop    rbx
    77f5:	41 5e                	pop    r14
    77f7:	41 5f                	pop    r15
    77f9:	c3                   	ret    
    77fa:	4c 8b 7b 10          	mov    r15,QWORD PTR [rbx+0x10]
    77fe:	49 8b 7f 08          	mov    rdi,QWORD PTR [r15+0x8]
    7802:	49 8b 47 10          	mov    rax,QWORD PTR [r15+0x10]
    7806:	ff 10                	call   QWORD PTR [rax]
    7808:	49 8b 47 10          	mov    rax,QWORD PTR [r15+0x10]
    780c:	48 8b 70 08          	mov    rsi,QWORD PTR [rax+0x8]
    7810:	48 85 f6             	test   rsi,rsi
    7813:	74 0d                	je     7822 <_ZN4core3ptr13drop_in_place17h3d6c8719df125942E+0x42>
    7815:	49 8b 7f 08          	mov    rdi,QWORD PTR [r15+0x8]
    7819:	48 8b 50 10          	mov    rdx,QWORD PTR [rax+0x10]
    781d:	e8 4e ea ff ff       	call   6270 <__rust_dealloc>
    7822:	48 8b 7b 10          	mov    rdi,QWORD PTR [rbx+0x10]
    7826:	be 18 00 00 00       	mov    esi,0x18
    782b:	ba 08 00 00 00       	mov    edx,0x8
    7830:	5b                   	pop    rbx
    7831:	41 5e                	pop    r14
    7833:	41 5f                	pop    r15
    7835:	e9 36 ea ff ff       	jmp    6270 <__rust_dealloc>
    783a:	49 89 c6             	mov    r14,rax
    783d:	49 8b 7f 08          	mov    rdi,QWORD PTR [r15+0x8]
    7841:	49 8b 77 10          	mov    rsi,QWORD PTR [r15+0x10]
    7845:	e8 c6 02 00 00       	call   7b10 <_ZN5alloc4heap8box_free17h0d868de7bdb0224bE>
    784a:	48 8b 7b 10          	mov    rdi,QWORD PTR [rbx+0x10]
    784e:	e8 dd 02 00 00       	call   7b30 <_ZN5alloc4heap8box_free17hf26f55995d21b8cdE>
    7853:	4c 89 f7             	mov    rdi,r14
    7856:	e8 a5 c9 ff ff       	call   4200 <_Unwind_Resume@plt>
    785b:	0f 1f 44 00 00       	nop    DWORD PTR [rax+rax*1+0x0]

0000000000007860 <_ZN4core3ptr13drop_in_place17h465b2898edf039e1E>:
    7860:	83 3f 00             	cmp    DWORD PTR [rdi],0x0
    7863:	74 09                	je     786e <_ZN4core3ptr13drop_in_place17h465b2898edf039e1E+0xe>
    7865:	48 83 c7 04          	add    rdi,0x4
    7869:	e9 b2 d5 00 00       	jmp    14e20 <_ZN69_$LT$std..sys..imp..fd..FileDesc$u20$as$u20$core..ops..drop..Drop$GT$4drop17h6edb73adab1bd89bE>
    786e:	c3                   	ret    
    786f:	90                   	nop

0000000000007870 <_ZN4core3ptr13drop_in_place17h60f21cf1441be826E>:
    7870:	c3                   	ret    
    7871:	66 2e 0f 1f 84 00 00 	nop    WORD PTR cs:[rax+rax*1+0x0]
    7878:	00 00 00 
    787b:	0f 1f 44 00 00       	nop    DWORD PTR [rax+rax*1+0x0]

0000000000007880 <_ZN4core3ptr13drop_in_place17h81072774c7a491b3E>:
    7880:	c3                   	ret    
    7881:	66 2e 0f 1f 84 00 00 	nop    WORD PTR cs:[rax+rax*1+0x0]
    7888:	00 00 00 
    788b:	0f 1f 44 00 00       	nop    DWORD PTR [rax+rax*1+0x0]

0000000000007890 <_ZN4core3ptr13drop_in_place17hf4d7c9965e8e2415E>:
    7890:	48 8b 47 08          	mov    rax,QWORD PTR [rdi+0x8]
    7894:	48 c7 00 00 00 00 00 	mov    QWORD PTR [rax],0x0
    789b:	c3                   	ret    
    789c:	0f 1f 40 00          	nop    DWORD PTR [rax+0x0]

00000000000078a0 <_ZN4core6result13unwrap_failed17h688f03e86ec1c25cE>:
    78a0:	48 83 ec 78          	sub    rsp,0x78
    78a4:	48 8d 05 65 ce 01 00 	lea    rax,[rip+0x1ce65]        # 24710 <str.b>
    78ab:	48 89 04 24          	mov    QWORD PTR [rsp],rax
    78af:	48 c7 44 24 08 2b 00 	mov    QWORD PTR [rsp+0x8],0x2b
    78b6:	00 00 
    78b8:	0f 10 07             	movups xmm0,XMMWORD PTR [rdi]
    78bb:	0f 29 44 24 30       	movaps XMMWORD PTR [rsp+0x30],xmm0
    78c0:	48 89 e0             	mov    rax,rsp
    78c3:	48 89 44 24 10       	mov    QWORD PTR [rsp+0x10],rax
    78c8:	48 8d 05 21 02 00 00 	lea    rax,[rip+0x221]        # 7af0 <_ZN55_$LT$$RF$$u27$a$u20$T$u20$as$u20$core..fmt..Display$GT$3fmt17h8a617cd31846a4b2E>
    78cf:	48 89 44 24 18       	mov    QWORD PTR [rsp+0x18],rax
    78d4:	48 8d 44 24 30       	lea    rax,[rsp+0x30]
    78d9:	48 89 44 24 20       	mov    QWORD PTR [rsp+0x20],rax
    78de:	48 8d 05 3b f5 00 00 	lea    rax,[rip+0xf53b]        # 16e20 <_ZN63_$LT$std..time..SystemTimeError$u20$as$u20$core..fmt..Debug$GT$3fmt17h832199a7e2f1d35cE>
    78e5:	48 89 44 24 28       	mov    QWORD PTR [rsp+0x28],rax
    78ea:	48 8d 05 7f 99 22 00 	lea    rax,[rip+0x22997f]        # 231270 <ref.N>
    78f1:	48 89 44 24 48       	mov    QWORD PTR [rsp+0x48],rax
    78f6:	48 c7 44 24 50 02 00 	mov    QWORD PTR [rsp+0x50],0x2
    78fd:	00 00 
    78ff:	48 c7 44 24 58 00 00 	mov    QWORD PTR [rsp+0x58],0x0
    7906:	00 00 
    7908:	48 8d 44 24 10       	lea    rax,[rsp+0x10]
    790d:	48 89 44 24 68       	mov    QWORD PTR [rsp+0x68],rax
    7912:	48 c7 44 24 70 02 00 	mov    QWORD PTR [rsp+0x70],0x2
    7919:	00 00 
    791b:	48 8d 35 6e 99 22 00 	lea    rsi,[rip+0x22996e]        # 231290 <ref.P>
    7922:	48 8d 7c 24 48       	lea    rdi,[rsp+0x48]
    7927:	e8 94 6f 01 00       	call   1e8c0 <_ZN4core9panicking9panic_fmt17h802c7d84595ae780E>
    792c:	0f 1f 40 00          	nop    DWORD PTR [rax+0x0]

0000000000007930 <_ZN4core6result13unwrap_failed17h7137bbdfa30ae4a6E>:
    7930:	48 83 ec 68          	sub    rsp,0x68
    7934:	48 8d 05 35 cd 01 00 	lea    rax,[rip+0x1cd35]        # 24670 <str.0>
    793b:	48 89 44 24 08       	mov    QWORD PTR [rsp+0x8],rax
    7940:	48 c7 44 24 10 10 00 	mov    QWORD PTR [rsp+0x10],0x10
    7947:	00 00 
    7949:	48 8d 44 24 08       	lea    rax,[rsp+0x8]
    794e:	48 89 44 24 18       	mov    QWORD PTR [rsp+0x18],rax
    7953:	48 8d 05 96 01 00 00 	lea    rax,[rip+0x196]        # 7af0 <_ZN55_$LT$$RF$$u27$a$u20$T$u20$as$u20$core..fmt..Display$GT$3fmt17h8a617cd31846a4b2E>
    795a:	48 89 44 24 20       	mov    QWORD PTR [rsp+0x20],rax
    795f:	48 89 e0             	mov    rax,rsp
    7962:	48 89 44 24 28       	mov    QWORD PTR [rsp+0x28],rax
    7967:	48 8d 05 42 6d 01 00 	lea    rax,[rip+0x16d42]        # 1e6b0 <_ZN63_$LT$core..cell..BorrowMutError$u20$as$u20$core..fmt..Debug$GT$3fmt17hb0da0f177e5a6199E>
    796e:	48 89 44 24 30       	mov    QWORD PTR [rsp+0x30],rax
    7973:	48 8d 05 f6 98 22 00 	lea    rax,[rip+0x2298f6]        # 231270 <ref.N>
    797a:	48 89 44 24 38       	mov    QWORD PTR [rsp+0x38],rax
    797f:	48 c7 44 24 40 02 00 	mov    QWORD PTR [rsp+0x40],0x2
    7986:	00 00 
    7988:	48 c7 44 24 48 00 00 	mov    QWORD PTR [rsp+0x48],0x0
    798f:	00 00 
    7991:	48 8d 44 24 18       	lea    rax,[rsp+0x18]
    7996:	48 89 44 24 58       	mov    QWORD PTR [rsp+0x58],rax
    799b:	48 c7 44 24 60 02 00 	mov    QWORD PTR [rsp+0x60],0x2
    79a2:	00 00 
    79a4:	48 8d 35 e5 98 22 00 	lea    rsi,[rip+0x2298e5]        # 231290 <ref.P>
    79ab:	48 8d 7c 24 38       	lea    rdi,[rsp+0x38]
    79b0:	e8 0b 6f 01 00       	call   1e8c0 <_ZN4core9panicking9panic_fmt17h802c7d84595ae780E>
    79b5:	66 2e 0f 1f 84 00 00 	nop    WORD PTR cs:[rax+rax*1+0x0]
    79bc:	00 00 00 
    79bf:	90                   	nop

00000000000079c0 <_ZN4core6result13unwrap_failed17ha64f28f75a090fa0E>:
    79c0:	48 83 ec 68          	sub    rsp,0x68
    79c4:	48 8d 05 05 cd 01 00 	lea    rax,[rip+0x1cd05]        # 246d0 <str.a>
    79cb:	48 89 44 24 08       	mov    QWORD PTR [rsp+0x8],rax
    79d0:	48 c7 44 24 10 39 00 	mov    QWORD PTR [rsp+0x10],0x39
    79d7:	00 00 
    79d9:	48 8d 44 24 08       	lea    rax,[rsp+0x8]
    79de:	48 89 44 24 18       	mov    QWORD PTR [rsp+0x18],rax
    79e3:	48 8d 05 06 01 00 00 	lea    rax,[rip+0x106]        # 7af0 <_ZN55_$LT$$RF$$u27$a$u20$T$u20$as$u20$core..fmt..Display$GT$3fmt17h8a617cd31846a4b2E>
    79ea:	48 89 44 24 20       	mov    QWORD PTR [rsp+0x20],rax
    79ef:	48 89 e0             	mov    rax,rsp
    79f2:	48 89 44 24 28       	mov    QWORD PTR [rsp+0x28],rax
    79f7:	48 8d 05 12 47 00 00 	lea    rax,[rip+0x4712]        # c110 <_ZN68_$LT$std..thread..local..AccessError$u20$as$u20$core..fmt..Debug$GT$3fmt17hb4d457d447d821a5E>
    79fe:	48 89 44 24 30       	mov    QWORD PTR [rsp+0x30],rax
    7a03:	48 8d 05 66 98 22 00 	lea    rax,[rip+0x229866]        # 231270 <ref.N>
    7a0a:	48 89 44 24 38       	mov    QWORD PTR [rsp+0x38],rax
    7a0f:	48 c7 44 24 40 02 00 	mov    QWORD PTR [rsp+0x40],0x2
    7a16:	00 00 
    7a18:	48 c7 44 24 48 00 00 	mov    QWORD PTR [rsp+0x48],0x0
    7a1f:	00 00 
    7a21:	48 8d 44 24 18       	lea    rax,[rsp+0x18]
    7a26:	48 89 44 24 58       	mov    QWORD PTR [rsp+0x58],rax
    7a2b:	48 c7 44 24 60 02 00 	mov    QWORD PTR [rsp+0x60],0x2
    7a32:	00 00 
    7a34:	48 8d 35 55 98 22 00 	lea    rsi,[rip+0x229855]        # 231290 <ref.P>
    7a3b:	48 8d 7c 24 38       	lea    rdi,[rsp+0x38]
    7a40:	e8 7b 6e 01 00       	call   1e8c0 <_ZN4core9panicking9panic_fmt17h802c7d84595ae780E>
    7a45:	66 2e 0f 1f 84 00 00 	nop    WORD PTR cs:[rax+rax*1+0x0]
    7a4c:	00 00 00 
    7a4f:	90                   	nop

0000000000007a50 <_ZN4core6result13unwrap_failed17heab30ec719fe9ae2E>:
    7a50:	53                   	push   rbx
    7a51:	48 83 ec 70          	sub    rsp,0x70
    7a55:	48 8d 05 b4 cc 01 00 	lea    rax,[rip+0x1ccb4]        # 24710 <str.b>
    7a5c:	48 89 44 24 10       	mov    QWORD PTR [rsp+0x10],rax
    7a61:	48 c7 44 24 18 2b 00 	mov    QWORD PTR [rsp+0x18],0x2b
    7a68:	00 00 
    7a6a:	0f 10 07             	movups xmm0,XMMWORD PTR [rdi]
    7a6d:	0f 29 04 24          	movaps XMMWORD PTR [rsp],xmm0
    7a71:	48 8d 44 24 10       	lea    rax,[rsp+0x10]
    7a76:	48 89 44 24 20       	mov    QWORD PTR [rsp+0x20],rax
    7a7b:	48 8d 05 6e 00 00 00 	lea    rax,[rip+0x6e]        # 7af0 <_ZN55_$LT$$RF$$u27$a$u20$T$u20$as$u20$core..fmt..Display$GT$3fmt17h8a617cd31846a4b2E>
    7a82:	48 89 44 24 28       	mov    QWORD PTR [rsp+0x28],rax
    7a87:	48 89 e0             	mov    rax,rsp
    7a8a:	48 89 44 24 30       	mov    QWORD PTR [rsp+0x30],rax
    7a8f:	48 8d 05 da f1 00 00 	lea    rax,[rip+0xf1da]        # 16c70 <_ZN58_$LT$std..io..error..Error$u20$as$u20$core..fmt..Debug$GT$3fmt17h2c7393f72a615a18E>
    7a96:	48 89 44 24 38       	mov    QWORD PTR [rsp+0x38],rax
    7a9b:	48 8d 05 ce 97 22 00 	lea    rax,[rip+0x2297ce]        # 231270 <ref.N>
    7aa2:	48 89 44 24 40       	mov    QWORD PTR [rsp+0x40],rax
    7aa7:	48 c7 44 24 48 02 00 	mov    QWORD PTR [rsp+0x48],0x2
    7aae:	00 00 
    7ab0:	48 c7 44 24 50 00 00 	mov    QWORD PTR [rsp+0x50],0x0
    7ab7:	00 00 
    7ab9:	48 8d 44 24 20       	lea    rax,[rsp+0x20]
    7abe:	48 89 44 24 60       	mov    QWORD PTR [rsp+0x60],rax
    7ac3:	48 c7 44 24 68 02 00 	mov    QWORD PTR [rsp+0x68],0x2
    7aca:	00 00 
    7acc:	48 8d 35 bd 97 22 00 	lea    rsi,[rip+0x2297bd]        # 231290 <ref.P>
    7ad3:	48 8d 7c 24 40       	lea    rdi,[rsp+0x40]
    7ad8:	e8 e3 6d 01 00       	call   1e8c0 <_ZN4core9panicking9panic_fmt17h802c7d84595ae780E>
    7add:	48 89 c3             	mov    rbx,rax
    7ae0:	48 89 e7             	mov    rdi,rsp
    7ae3:	e8 78 fc ff ff       	call   7760 <_ZN4core3ptr13drop_in_place17h26b7bcc14fd3b4feE>
    7ae8:	48 89 df             	mov    rdi,rbx
    7aeb:	e8 10 c7 ff ff       	call   4200 <_Unwind_Resume@plt>

0000000000007af0 <_ZN55_$LT$$RF$$u27$a$u20$T$u20$as$u20$core..fmt..Display$GT$3fmt17h8a617cd31846a4b2E>:
    7af0:	48 89 f0             	mov    rax,rsi
    7af3:	48 8b 0f             	mov    rcx,QWORD PTR [rdi]
    7af6:	48 8b 77 08          	mov    rsi,QWORD PTR [rdi+0x8]
    7afa:	48 89 cf             	mov    rdi,rcx
    7afd:	48 89 c2             	mov    rdx,rax
    7b00:	e9 0b 9d 01 00       	jmp    21810 <_ZN42_$LT$str$u20$as$u20$core..fmt..Display$GT$3fmt17ha77ab0c4fc3376b3E>
    7b05:	66 2e 0f 1f 84 00 00 	nop    WORD PTR cs:[rax+rax*1+0x0]
    7b0c:	00 00 00 
    7b0f:	90                   	nop

0000000000007b10 <_ZN5alloc4heap8box_free17h0d868de7bdb0224bE>:
    7b10:	48 89 f0             	mov    rax,rsi
    7b13:	48 8b 70 08          	mov    rsi,QWORD PTR [rax+0x8]
    7b17:	48 85 f6             	test   rsi,rsi
    7b1a:	74 09                	je     7b25 <_ZN5alloc4heap8box_free17h0d868de7bdb0224bE+0x15>
    7b1c:	48 8b 50 10          	mov    rdx,QWORD PTR [rax+0x10]
    7b20:	e9 4b e7 ff ff       	jmp    6270 <__rust_dealloc>
    7b25:	c3                   	ret    
    7b26:	66 2e 0f 1f 84 00 00 	nop    WORD PTR cs:[rax+rax*1+0x0]
    7b2d:	00 00 00 

0000000000007b30 <_ZN5alloc4heap8box_free17hf26f55995d21b8cdE>:
    7b30:	be 18 00 00 00       	mov    esi,0x18
    7b35:	ba 08 00 00 00       	mov    edx,0x8
    7b3a:	e9 31 e7 ff ff       	jmp    6270 <__rust_dealloc>
    7b3f:	90                   	nop

0000000000007b40 <_ZN61_$LT$alloc..heap..Heap$u20$as$u20$alloc..allocator..Alloc$GT$3oom17hba3f1ad762ab25d1E>:
    7b40:	48 83 ec 18          	sub    rsp,0x18
    7b44:	48 8b 47 10          	mov    rax,QWORD PTR [rdi+0x10]
    7b48:	48 89 44 24 10       	mov    QWORD PTR [rsp+0x10],rax
    7b4d:	0f 10 07             	movups xmm0,XMMWORD PTR [rdi]
    7b50:	0f 29 04 24          	movaps XMMWORD PTR [rsp],xmm0
    7b54:	48 89 e7             	mov    rdi,rsp
    7b57:	e8 04 e7 ff ff       	call   6260 <__rust_oom>
    7b5c:	0f 1f 40 00          	nop    DWORD PTR [rax+0x0]

0000000000007b60 <_ZN4rand6jitter9JitterRng14new_with_timer17h30e5162c5f868df1E>:
    7b60:	55                   	push   rbp
    7b61:	41 57                	push   r15
    7b63:	41 56                	push   r14
    7b65:	41 54                	push   r12
    7b67:	53                   	push   rbx
    7b68:	48 81 ec 50 08 00 00 	sub    rsp,0x850
    7b6f:	48 89 f3             	mov    rbx,rsi
    7b72:	49 89 fe             	mov    r14,rdi
    7b75:	48 c7 44 24 10 00 00 	mov    QWORD PTR [rsp+0x10],0x0
    7b7c:	00 00 
    7b7e:	c7 44 24 40 40 00 00 	mov    DWORD PTR [rsp+0x40],0x40
    7b85:	00 
    7b86:	48 89 5c 24 18       	mov    QWORD PTR [rsp+0x18],rbx
    7b8b:	48 8d 7c 24 4c       	lea    rdi,[rsp+0x4c]
    7b90:	0f 57 c0             	xorps  xmm0,xmm0
    7b93:	0f 11 44 24 28       	movups XMMWORD PTR [rsp+0x28],xmm0
    7b98:	48 c7 44 24 38 00 00 	mov    QWORD PTR [rsp+0x38],0x0
    7b9f:	00 00 
    7ba1:	31 f6                	xor    esi,esi
    7ba3:	ba 00 08 00 00       	mov    edx,0x800
    7ba8:	e8 cb c4 ff ff       	call   4078 <memset@plt>
    7bad:	c7 44 24 44 00 00 00 	mov    DWORD PTR [rsp+0x44],0x0
    7bb4:	00 
    7bb5:	ff d3                	call   rbx
    7bb7:	48 89 44 24 20       	mov    QWORD PTR [rsp+0x20],rax
    7bbc:	4c 8d 7c 24 10       	lea    r15,[rsp+0x10]
    7bc1:	be 01 00 00 00       	mov    esi,0x1
    7bc6:	4c 89 ff             	mov    rdi,r15
    7bc9:	e8 a2 02 00 00       	call   7e70 <_ZN4rand6jitter9JitterRng9memaccess17h9dcdde27bbff43f0E>
    7bce:	ff 54 24 18          	call   QWORD PTR [rsp+0x18]
    7bd2:	48 89 c3             	mov    rbx,rax
    7bd5:	48 2b 5c 24 20       	sub    rbx,QWORD PTR [rsp+0x20]
    7bda:	48 89 44 24 20       	mov    QWORD PTR [rsp+0x20],rax
    7bdf:	ba 01 00 00 00       	mov    edx,0x1
    7be4:	4c 89 ff             	mov    rdi,r15
    7be7:	48 89 de             	mov    rsi,rbx
    7bea:	e8 41 01 00 00       	call   7d30 <_ZN4rand6jitter9JitterRng9lfsr_time17h4f186dce43e8cfa2E>
    7bef:	48 8b 44 24 28       	mov    rax,QWORD PTR [rsp+0x28]
    7bf4:	48 8b 4c 24 30       	mov    rcx,QWORD PTR [rsp+0x30]
    7bf9:	48 29 d8             	sub    rax,rbx
    7bfc:	48 89 5c 24 28       	mov    QWORD PTR [rsp+0x28],rbx
    7c01:	48 89 44 24 30       	mov    QWORD PTR [rsp+0x30],rax
    7c06:	48 39 c8             	cmp    rax,rcx
    7c09:	74 10                	je     7c1b <_ZN4rand6jitter9JitterRng14new_with_timer17h30e5162c5f868df1E+0xbb>
    7c0b:	48 85 db             	test   rbx,rbx
    7c0e:	74 0b                	je     7c1b <_ZN4rand6jitter9JitterRng14new_with_timer17h30e5162c5f868df1E+0xbb>
    7c10:	48 85 c0             	test   rax,rax
    7c13:	74 06                	je     7c1b <_ZN4rand6jitter9JitterRng14new_with_timer17h30e5162c5f868df1E+0xbb>
    7c15:	48 c1 44 24 10 07    	rol    QWORD PTR [rsp+0x10],0x7
    7c1b:	44 8b 64 24 40       	mov    r12d,DWORD PTR [rsp+0x40]
    7c20:	45 85 e4             	test   r12d,r12d
    7c23:	74 7a                	je     7c9f <_ZN4rand6jitter9JitterRng14new_with_timer17h30e5162c5f868df1E+0x13f>
    7c25:	31 ed                	xor    ebp,ebp
    7c27:	4c 8d 7c 24 10       	lea    r15,[rsp+0x10]
    7c2c:	0f 1f 40 00          	nop    DWORD PTR [rax+0x0]
    7c30:	89 e8                	mov    eax,ebp
    7c32:	83 c5 01             	add    ebp,0x1
    7c35:	0f 42 e8             	cmovb  ebp,eax
    7c38:	72 65                	jb     7c9f <_ZN4rand6jitter9JitterRng14new_with_timer17h30e5162c5f868df1E+0x13f>
    7c3a:	66 0f 1f 44 00 00    	nop    WORD PTR [rax+rax*1+0x0]
    7c40:	be 01 00 00 00       	mov    esi,0x1
    7c45:	4c 89 ff             	mov    rdi,r15
    7c48:	e8 23 02 00 00       	call   7e70 <_ZN4rand6jitter9JitterRng9memaccess17h9dcdde27bbff43f0E>
    7c4d:	ff 54 24 18          	call   QWORD PTR [rsp+0x18]
    7c51:	48 89 c3             	mov    rbx,rax
    7c54:	48 2b 5c 24 20       	sub    rbx,QWORD PTR [rsp+0x20]
    7c59:	48 89 44 24 20       	mov    QWORD PTR [rsp+0x20],rax
    7c5e:	ba 01 00 00 00       	mov    edx,0x1
    7c63:	4c 89 ff             	mov    rdi,r15
    7c66:	48 89 de             	mov    rsi,rbx
    7c69:	e8 c2 00 00 00       	call   7d30 <_ZN4rand6jitter9JitterRng9lfsr_time17h4f186dce43e8cfa2E>
    7c6e:	48 8b 44 24 28       	mov    rax,QWORD PTR [rsp+0x28]
    7c73:	48 8b 4c 24 30       	mov    rcx,QWORD PTR [rsp+0x30]
    7c78:	48 29 d8             	sub    rax,rbx
    7c7b:	48 89 5c 24 28       	mov    QWORD PTR [rsp+0x28],rbx
    7c80:	48 89 44 24 30       	mov    QWORD PTR [rsp+0x30],rax
    7c85:	48 39 c8             	cmp    rax,rcx
    7c88:	74 b6                	je     7c40 <_ZN4rand6jitter9JitterRng14new_with_timer17h30e5162c5f868df1E+0xe0>
    7c8a:	48 85 db             	test   rbx,rbx
    7c8d:	74 b1                	je     7c40 <_ZN4rand6jitter9JitterRng14new_with_timer17h30e5162c5f868df1E+0xe0>
    7c8f:	48 85 c0             	test   rax,rax
    7c92:	74 ac                	je     7c40 <_ZN4rand6jitter9JitterRng14new_with_timer17h30e5162c5f868df1E+0xe0>
    7c94:	48 c1 44 24 10 07    	rol    QWORD PTR [rsp+0x10],0x7
    7c9a:	44 39 e5             	cmp    ebp,r12d
    7c9d:	72 91                	jb     7c30 <_ZN4rand6jitter9JitterRng14new_with_timer17h30e5162c5f868df1E+0xd0>
    7c9f:	48 8d 5c 24 10       	lea    rbx,[rsp+0x10]
    7ca4:	48 89 df             	mov    rdi,rbx
    7ca7:	e8 24 02 00 00       	call   7ed0 <_ZN4rand6jitter9JitterRng9stir_pool17h60d6e03ebd54e8f4E>
    7cac:	8a 44 24 4c          	mov    al,BYTE PTR [rsp+0x4c]
    7cb0:	88 44 24 0f          	mov    BYTE PTR [rsp+0xf],al
    7cb4:	8a 44 24 0f          	mov    al,BYTE PTR [rsp+0xf]
    7cb8:	ba 40 08 00 00       	mov    edx,0x840
    7cbd:	4c 89 f7             	mov    rdi,r14
    7cc0:	48 89 de             	mov    rsi,rbx
    7cc3:	e8 58 c4 ff ff       	call   4120 <memcpy@plt>
    7cc8:	4c 89 f0             	mov    rax,r14
    7ccb:	48 81 c4 50 08 00 00 	add    rsp,0x850
    7cd2:	5b                   	pop    rbx
    7cd3:	41 5c                	pop    r12
    7cd5:	41 5e                	pop    r14
    7cd7:	41 5f                	pop    r15
    7cd9:	5d                   	pop    rbp
    7cda:	c3                   	ret    
    7cdb:	0f 1f 44 00 00       	nop    DWORD PTR [rax+rax*1+0x0]

0000000000007ce0 <_ZN4rand6jitter9JitterRng15random_loop_cnt17hce906d8e5c680ef0E>:
    7ce0:	53                   	push   rbx
    7ce1:	48 89 fb             	mov    rbx,rdi
    7ce4:	ff 53 08             	call   QWORD PTR [rbx+0x8]
    7ce7:	48 89 c1             	mov    rcx,rax
    7cea:	48 33 0b             	xor    rcx,QWORD PTR [rbx]
    7ced:	31 c0                	xor    eax,eax
    7cef:	31 d2                	xor    edx,edx
    7cf1:	66 66 66 66 66 66 2e 	data16 data16 data16 data16 data16 nop WORD PTR cs:[rax+rax*1+0x0]
    7cf8:	0f 1f 84 00 00 00 00 
    7cff:	00 
    7d00:	89 d6                	mov    esi,edx
    7d02:	83 c6 01             	add    esi,0x1
    7d05:	0f 92 c3             	setb   bl
    7d08:	72 16                	jb     7d20 <_ZN4rand6jitter9JitterRng15random_loop_cnt17hce906d8e5c680ef0E+0x40>
    7d0a:	84 db                	test   bl,bl
    7d0c:	0f 44 d6             	cmove  edx,esi
    7d0f:	89 ce                	mov    esi,ecx
    7d11:	83 e6 0f             	and    esi,0xf
    7d14:	48 31 f0             	xor    rax,rsi
    7d17:	48 c1 e9 04          	shr    rcx,0x4
    7d1b:	83 fa 10             	cmp    edx,0x10
    7d1e:	72 e0                	jb     7d00 <_ZN4rand6jitter9JitterRng15random_loop_cnt17hce906d8e5c680ef0E+0x20>
    7d20:	5b                   	pop    rbx
    7d21:	c3                   	ret    
    7d22:	66 2e 0f 1f 84 00 00 	nop    WORD PTR cs:[rax+rax*1+0x0]
    7d29:	00 00 00 
    7d2c:	0f 1f 40 00          	nop    DWORD PTR [rax+0x0]

0000000000007d30 <_ZN4rand6jitter9JitterRng9lfsr_time17h4f186dce43e8cfa2E>:
    7d30:	41 57                	push   r15
    7d32:	41 56                	push   r14
    7d34:	41 54                	push   r12
    7d36:	53                   	push   rbx
    7d37:	50                   	push   rax
    7d38:	49 89 f7             	mov    r15,rsi
    7d3b:	49 89 fe             	mov    r14,rdi
    7d3e:	31 c0                	xor    eax,eax
    7d40:	84 d2                	test   dl,dl
    7d42:	74 08                	je     7d4c <_ZN4rand6jitter9JitterRng9lfsr_time17h4f186dce43e8cfa2E+0x1c>
    7d44:	4c 89 f7             	mov    rdi,r14
    7d47:	e8 94 ff ff ff       	call   7ce0 <_ZN4rand6jitter9JitterRng15random_loop_cnt17hce906d8e5c680ef0E>
    7d4c:	45 31 c0             	xor    r8d,r8d
    7d4f:	31 d2                	xor    edx,edx
    7d51:	85 c0                	test   eax,eax
    7d53:	0f 84 91 00 00 00    	je     7dea <_ZN4rand6jitter9JitterRng9lfsr_time17h4f186dce43e8cfa2E+0xba>
    7d59:	0f 1f 80 00 00 00 00 	nop    DWORD PTR [rax+0x0]
    7d60:	44 89 c1             	mov    ecx,r8d
    7d63:	41 83 c0 01          	add    r8d,0x1
    7d67:	44 0f 42 c1          	cmovb  r8d,ecx
    7d6b:	72 7d                	jb     7dea <_ZN4rand6jitter9JitterRng9lfsr_time17h4f186dce43e8cfa2E+0xba>
    7d6d:	b9 3f 00 00 00       	mov    ecx,0x3f
    7d72:	66 66 66 66 66 2e 0f 	data16 data16 data16 data16 nop WORD PTR cs:[rax+rax*1+0x0]
    7d79:	1f 84 00 00 00 00 00 
    7d80:	4d 89 fa             	mov    r10,r15
    7d83:	49 d3 e2             	shl    r10,cl
    7d86:	49 c1 ea 3f          	shr    r10,0x3f
    7d8a:	49 89 d1             	mov    r9,rdx
    7d8d:	49 c1 e9 3f          	shr    r9,0x3f
    7d91:	49 89 d3             	mov    r11,rdx
    7d94:	49 c1 eb 3c          	shr    r11,0x3c
    7d98:	41 83 e3 01          	and    r11d,0x1
    7d9c:	49 89 d4             	mov    r12,rdx
    7d9f:	49 c1 ec 37          	shr    r12,0x37
    7da3:	41 83 e4 01          	and    r12d,0x1
    7da7:	89 d7                	mov    edi,edx
    7da9:	c1 ef 1e             	shr    edi,0x1e
    7dac:	83 e7 01             	and    edi,0x1
    7daf:	89 d3                	mov    ebx,edx
    7db1:	c1 eb 1b             	shr    ebx,0x1b
    7db4:	83 e3 01             	and    ebx,0x1
    7db7:	89 d6                	mov    esi,edx
    7db9:	c1 ee 16             	shr    esi,0x16
    7dbc:	83 e6 01             	and    esi,0x1
    7dbf:	4c 31 ca             	xor    rdx,r9
    7dc2:	4c 31 da             	xor    rdx,r11
    7dc5:	4c 31 e7             	xor    rdi,r12
    7dc8:	48 31 d7             	xor    rdi,rdx
    7dcb:	48 31 de             	xor    rsi,rbx
    7dce:	4c 31 d6             	xor    rsi,r10
    7dd1:	48 31 fe             	xor    rsi,rdi
    7dd4:	49 8d 14 71          	lea    rdx,[r9+rsi*2]
    7dd8:	48 ff c9             	dec    rcx
    7ddb:	48 83 f9 ff          	cmp    rcx,0xffffffffffffffff
    7ddf:	75 9f                	jne    7d80 <_ZN4rand6jitter9JitterRng9lfsr_time17h4f186dce43e8cfa2E+0x50>
    7de1:	41 39 c0             	cmp    r8d,eax
    7de4:	0f 82 76 ff ff ff    	jb     7d60 <_ZN4rand6jitter9JitterRng9lfsr_time17h4f186dce43e8cfa2E+0x30>
    7dea:	48 89 14 24          	mov    QWORD PTR [rsp],rdx
    7dee:	48 8b 04 24          	mov    rax,QWORD PTR [rsp]
    7df2:	49 8b 3e             	mov    rdi,QWORD PTR [r14]
    7df5:	b9 3f 00 00 00       	mov    ecx,0x3f
    7dfa:	66 0f 1f 44 00 00    	nop    WORD PTR [rax+rax*1+0x0]
    7e00:	4d 89 f9             	mov    r9,r15
    7e03:	49 d3 e1             	shl    r9,cl
    7e06:	49 c1 e9 3f          	shr    r9,0x3f
    7e0a:	49 89 f8             	mov    r8,rdi
    7e0d:	49 c1 e8 3f          	shr    r8,0x3f
    7e11:	49 89 fa             	mov    r10,rdi
    7e14:	49 c1 ea 3c          	shr    r10,0x3c
    7e18:	41 83 e2 01          	and    r10d,0x1
    7e1c:	48 89 fb             	mov    rbx,rdi
    7e1f:	48 c1 eb 37          	shr    rbx,0x37
    7e23:	83 e3 01             	and    ebx,0x1
    7e26:	89 fe                	mov    esi,edi
    7e28:	c1 ee 1e             	shr    esi,0x1e
    7e2b:	83 e6 01             	and    esi,0x1
    7e2e:	89 fa                	mov    edx,edi
    7e30:	c1 ea 1b             	shr    edx,0x1b
    7e33:	83 e2 01             	and    edx,0x1
    7e36:	89 f8                	mov    eax,edi
    7e38:	c1 e8 16             	shr    eax,0x16
    7e3b:	83 e0 01             	and    eax,0x1
    7e3e:	4c 31 c7             	xor    rdi,r8
    7e41:	4c 31 d7             	xor    rdi,r10
    7e44:	48 31 de             	xor    rsi,rbx
    7e47:	48 31 fe             	xor    rsi,rdi
    7e4a:	48 31 d0             	xor    rax,rdx
    7e4d:	4c 31 c8             	xor    rax,r9
    7e50:	48 31 f0             	xor    rax,rsi
    7e53:	49 8d 3c 40          	lea    rdi,[r8+rax*2]
    7e57:	48 ff c9             	dec    rcx
    7e5a:	48 83 f9 ff          	cmp    rcx,0xffffffffffffffff
    7e5e:	75 a0                	jne    7e00 <_ZN4rand6jitter9JitterRng9lfsr_time17h4f186dce43e8cfa2E+0xd0>
    7e60:	49 89 3e             	mov    QWORD PTR [r14],rdi
    7e63:	48 83 c4 08          	add    rsp,0x8
    7e67:	5b                   	pop    rbx
    7e68:	41 5c                	pop    r12
    7e6a:	41 5e                	pop    r14
    7e6c:	41 5f                	pop    r15
    7e6e:	c3                   	ret    
    7e6f:	90                   	nop

0000000000007e70 <_ZN4rand6jitter9JitterRng9memaccess17h9dcdde27bbff43f0E>:
    7e70:	41 56                	push   r14
    7e72:	53                   	push   rbx
    7e73:	50                   	push   rax
    7e74:	49 89 fe             	mov    r14,rdi
    7e77:	b8 80 00 00 00       	mov    eax,0x80
    7e7c:	40 84 f6             	test   sil,sil
    7e7f:	74 0b                	je     7e8c <_ZN4rand6jitter9JitterRng9memaccess17h9dcdde27bbff43f0E+0x1c>
    7e81:	4c 89 f7             	mov    rdi,r14
    7e84:	e8 57 fe ff ff       	call   7ce0 <_ZN4rand6jitter9JitterRng15random_loop_cnt17hce906d8e5c680ef0E>
    7e89:	83 e8 80             	sub    eax,0xffffff80
    7e8c:	49 8b 4e 28          	mov    rcx,QWORD PTR [r14+0x28]
    7e90:	85 c0                	test   eax,eax
    7e92:	74 2d                	je     7ec1 <_ZN4rand6jitter9JitterRng9memaccess17h9dcdde27bbff43f0E+0x51>
    7e94:	31 d2                	xor    edx,edx
    7e96:	66 2e 0f 1f 84 00 00 	nop    WORD PTR cs:[rax+rax*1+0x0]
    7e9d:	00 00 00 
    7ea0:	89 d6                	mov    esi,edx
    7ea2:	83 c6 01             	add    esi,0x1
    7ea5:	0f 92 c3             	setb   bl
    7ea8:	72 17                	jb     7ec1 <_ZN4rand6jitter9JitterRng9memaccess17h9dcdde27bbff43f0E+0x51>
    7eaa:	84 db                	test   bl,bl
    7eac:	0f 44 d6             	cmove  edx,esi
    7eaf:	83 c1 1f             	add    ecx,0x1f
    7eb2:	81 e1 ff 07 00 00    	and    ecx,0x7ff
    7eb8:	41 fe 44 0e 3c       	inc    BYTE PTR [r14+rcx*1+0x3c]
    7ebd:	39 c2                	cmp    edx,eax
    7ebf:	72 df                	jb     7ea0 <_ZN4rand6jitter9JitterRng9memaccess17h9dcdde27bbff43f0E+0x30>
    7ec1:	49 89 4e 28          	mov    QWORD PTR [r14+0x28],rcx
    7ec5:	48 83 c4 08          	add    rsp,0x8
    7ec9:	5b                   	pop    rbx
    7eca:	41 5e                	pop    r14
    7ecc:	c3                   	ret    
    7ecd:	0f 1f 00             	nop    DWORD PTR [rax]

0000000000007ed0 <_ZN4rand6jitter9JitterRng9stir_pool17h60d6e03ebd54e8f4E>:
    7ed0:	4c 8b 17             	mov    r10,QWORD PTR [rdi]
    7ed3:	49 b8 89 ab cd ef 01 	movabs r8,0x67452301efcdab89
    7eda:	23 45 67 
    7edd:	48 be 76 54 32 10 fe 	movabs rsi,0x98badcfe10325476
    7ee4:	dc ba 98 
    7ee7:	49 b9 ff ff ff ff ff 	movabs r9,0x7fffffffffffffff
    7eee:	ff ff 7f 
    7ef1:	45 31 db             	xor    r11d,r11d
    7ef4:	66 66 66 2e 0f 1f 84 	data16 data16 nop WORD PTR cs:[rax+rax*1+0x0]
    7efb:	00 00 00 00 00 
    7f00:	4c 89 d2             	mov    rdx,r10
    7f03:	44 89 d9             	mov    ecx,r11d
    7f06:	48 d3 ea             	shr    rdx,cl
    7f09:	83 e2 01             	and    edx,0x1
    7f0c:	4c 01 ca             	add    rdx,r9
    7f0f:	4c 21 c2             	and    rdx,r8
    7f12:	48 89 f0             	mov    rax,rsi
    7f15:	4c 31 c0             	xor    rax,r8
    7f18:	48 31 d0             	xor    rax,rdx
    7f1b:	48 0f ac c6 3f       	shrd   rsi,rax,0x3f
    7f20:	41 8d 4b 01          	lea    ecx,[r11+0x1]
    7f24:	4c 89 d2             	mov    rdx,r10
    7f27:	48 d3 ea             	shr    rdx,cl
    7f2a:	83 e2 01             	and    edx,0x1
    7f2d:	4c 01 ca             	add    rdx,r9
    7f30:	4c 21 c2             	and    rdx,r8
    7f33:	4c 31 c6             	xor    rsi,r8
    7f36:	48 31 d6             	xor    rsi,rdx
    7f39:	48 c1 e8 3e          	shr    rax,0x3e
    7f3d:	83 e0 01             	and    eax,0x1
    7f40:	48 8d 34 70          	lea    rsi,[rax+rsi*2]
